(iindexation
Result
p1
(dp2
S'numberOfIndexedFiles'
p3
I99
sS'numberOfFilesNotImported'
p4
I0
sS'filesNotImported'
p5
(lp6
sS'processRunningTimeInMS'
p7
F2.3308281898498535
sS'totalFileCount'
p8
I99
sb.