(iindexation
Result
p1
(dp2
S'numberOfIndexedFiles'
p3
I7
sS'numberOfFilesNotImported'
p4
I0
sS'filesNotImported'
p5
(lp6
sS'processRunningTimeInMS'
p7
F0.063443899154663086
sS'totalFileCount'
p8
I7
sb.