(lp1
(dp2
S'albums'
p3
(lp4
(dp5
S'cover'
p6
S'art/nocover.png'
p7
sS'title'
p8
S'Mr Scruff Presents Keep It Solid Steel'
p9
sasS'artist'
p10
S'2day & 2moro'
p11
sa(dp12
g3
(lp13
(dp14
g6
g7
sg8
S'The End Is Begun'
p15
sasg10
S'3'
sa(dp16
g3
(lp17
(dp18
g6
g7
sg8
S"One Off's Remixes And B Sides (CD1)"
p19
sasg10
S'3 Mins (feat. Mark Murphy)'
p20
sa(dp21
g3
(lp22
(dp23
g6
g7
sg8
S'Bomb In A Birdcage'
p24
sasg10
S'A Fine Frenzy'
p25
sa(dp26
g3
(lp27
(dp28
g6
g7
sg8
S'ABBA'
p29
sa(dp30
g6
g7
sg8
S'Arrival'
p31
sa(dp32
g6
g7
sg8
S'Gimme! Gimme! Gimme!'
p33
sa(dp34
g6
g7
sg8
S'He Is Your Brother'
p35
sa(dp36
g6
g7
sg8
S'Karaoke'
p37
sa(dp38
g6
g7
sg8
S'Ring Ring'
p39
sa(dp40
g6
g7
sg8
S'Super Trouper'
p41
sa(dp42
g6
g7
sg8
S'Thank You for the Music'
p43
sa(dp44
g6
g7
sg8
S'The Album'
p45
sa(dp46
g6
g7
sg8
S'The Albums'
p47
sa(dp48
g6
g7
sg8
S'The Ultimate Collection'
p49
sa(dp50
g6
g7
sg8
S'The Visitors'
p51
sa(dp52
g6
g7
sg8
S'Voulez-Vous'
p53
sa(dp54
g6
g7
sg8
S'Waterloo'
p55
sasg10
S'ABBA'
p56
sa(dp57
g3
(lp58
(dp59
g6
g7
sg8
S"'74 Jailbreak EP"
p60
sa(dp61
g6
g7
sg8
S'Back in Black'
p62
sa(dp63
g6
g7
sg8
S'Ballbreaker (Remastered)'
p64
sa(dp65
g6
g7
sg8
S'Black Ice'
p66
sa(dp67
g6
g7
sg8
S'Blow Up Your Video (Remastered)'
p68
sa(dp69
g6
g7
sg8
S'Dirty Deeds Done Dirt Cheap'
p70
sa(dp71
g6
g7
sg8
S'For Those About to Rock'
p72
sa(dp73
g6
g7
sg8
S'High Voltage'
p74
sa(dp75
g6
g7
sg8
S'Highway to Hell'
p76
sa(dp77
g6
g7
sg8
S'Let There Be Rock (Remastered)'
p78
sa(dp79
g6
g7
sg8
S'Live From the Atlantic Studios'
p80
sa(dp81
g6
g7
sg8
S'Powerage'
p82
sa(dp83
g6
g7
sg8
S'T.N.T.'
p84
sa(dp85
g6
g7
sg8
S'Who Made Who'
p86
sasg10
S'AC/DC'
p87
sa(dp88
g3
(lp89
(dp90
g6
g7
sg8
S'Magnificent City'
p91
sasg10
S'Aceyalone and Rjd2'
p92
sa(dp93
g3
(lp94
(dp95
g6
g7
sg8
S'Emphasis / Who Wants to Live Forever'
p96
sasg10
S'After Forever'
p97
sa(dp98
g3
(lp99
(dp100
g6
g7
sg8
S'In Your Room'
p101
sasg10
S'Agua de Annique'
p102
sa(dp103
g3
(lp104
(dp105
g6
g7
sg8
S'Undark'
p106
sasg10
S'Akido'
p107
sa(dp108
g3
(lp109
(dp110
g6
g7
sg8
S'The Collection'
p111
sasg10
S'Alanis Morissette'
p112
sa(dp113
g3
(lp114
(dp115
g6
g7
sg8
S'The Fall of Ideals'
p116
sasg10
S'All That Remains'
p117
sa(dp118
g3
(lp119
(dp120
g6
g7
sg8
S'Ayreonauts Only'
p121
sa(dp122
g6
g7
sg8
S'Fate of a Dreamer'
p123
sasg10
S'Ambeon'
p124
sa(dp125
g3
(lp126
(dp127
g6
g7
sg8
S'Fate of Norns'
p128
sasg10
S'Amon Amarth'
p129
sa(dp130
g3
(lp131
(dp132
g6
g7
sg8
S'4 Ton Mantis'
p133
sa(dp134
g6
g7
sg8
S'Bricolage'
p135
sa(dp136
g6
g7
sg8
S'Foley Room'
p137
sa(dp138
g6
g7
sg8
S'One Offs... Remixes & B-Sides'
p139
sa(dp140
g6
g7
sg8
S'Out From Out Where'
p141
sa(dp142
g6
g7
sg8
S'Permutation'
p143
sasg10
S'Amon Tobin'
p144
sa(dp145
g3
(lp146
(dp147
g6
g7
sg8
S'A Fine Day to Exit'
p148
sa(dp149
g6
g7
sg8
S'A Natural Disaster'
p150
sa(dp151
g6
g7
sg8
S'Alternative 4'
p152
sa(dp153
g6
g7
sg8
S'Eternity'
p154
sa(dp155
g6
g7
sg8
S'Judgement'
p156
sa(dp157
g6
g7
sg8
S'Serenades'
p158
sa(dp159
g6
g7
sg8
S'The Silent Enigma [digipack]'
p160
sasg10
S'Anathema'
p161
sa(dp162
g3
(lp163
(dp164
g6
g7
sg8
S'Rheinberger :Suite Op. 149, Sechs St\xc3\xbccke Op. 150'
p165
sasg10
S'Andreas Juffinger'
p166
sa(dp167
g3
(lp168
(dp169
g6
g7
sg8
S'Twin Peaks'
p170
sasg10
S'Angelo Badalamenti'
p171
sa(dp172
g3
(lp173
(dp174
g6
g7
sg8
S'Angels Cry'
p175
sa(dp176
g6
g7
sg8
S'Aurora Consurgens'
p177
sa(dp178
g6
g7
sg8
S'Fireworks'
p179
sa(dp180
g6
g7
sg8
S'Holy Land'
p181
sa(dp182
g6
g7
sg8
S'Rebirth'
p183
sa(dp184
g6
g7
sg8
S'Temple of Shadows'
p185
sasg10
S'Angra'
p186
sa(dp187
g3
(lp188
(dp189
g6
g7
sg8
S'Weightless'
p190
sasg10
S'Animals as Leaders'
p191
sa(dp192
g3
(lp193
(dp194
g6
g7
sg8
S'Anna Calvi'
p195
sasg10
S'Anna Calvi'
p196
sa(dp197
g3
(lp198
(dp199
g6
g7
sg8
S'Requiem (Cd-1)'
p200
sa(dp201
g6
g7
sg8
S'Requiem (Cd-2)'
p202
sasg10
S'Antonin Dvorak'
p203
sa(dp204
g3
(lp205
(dp206
g6
g7
sg8
S'Funeral'
p207
sa(dp208
g6
g7
sg8
S'Neon Bible'
p209
sasg10
S'Arcade Fire'
p210
sa(dp211
g3
(lp212
(dp213
g6
g7
sg8
S'Favourite Worst Nightmare'
p214
sa(dp215
g6
g7
sg8
S'Humbug'
p216
sa(dp217
g6
g7
sg8
S"Whatever People Say I Am, That's What I'm Not"
p218
sasg10
S'Arctic Monkeys'
p219
sa(dp220
g3
(lp221
(dp222
g6
g7
sg8
S'La Masquerade Infernale'
p223
sa(dp224
g6
g7
sg8
S'The Sham Mirrors'
p225
sasg10
S'Arcturus'
p226
sa(dp227
g3
(lp228
(dp229
g6
g7
sg8
S'Mr Scruff Presents Keep It Solid Steel'
p230
sasg10
S'Arsonists'
p231
sa(dp232
g3
(lp233
(dp234
g6
g7
sg8
S'Kronos Quartet: 25 Years'
p235
sa(dp236
g6
g7
sg8
S'Soul of the Tango (Yo Yo Ma)'
p237
sa(dp238
g6
g7
sg8
S'Tango: Zero Hour'
p239
sasg10
S'Astor Piazzolla'
p240
sa(dp241
g3
(lp242
(dp243
g6
g7
sg8
S'Audioslave'
p244
sa(dp245
g6
g7
sg8
S'Out of Exile'
p246
sasg10
S'Audioslave'
p247
sa(dp248
g3
(lp249
(dp250
g6
g7
sg8
S'Quaristice'
p251
sasg10
S'Autechre'
p252
sa(dp253
g3
(lp254
(dp255
g6
g7
sg8
S'Avenged Sevenfold'
p256
sa(dp257
g6
g7
sg8
S'Diamonds in the Rough'
p258
sa(dp259
g6
g7
sg8
S'Nightmare'
p260
sa(dp261
g6
g7
sg8
S'Sounding the Seventh Trumpet'
p262
sa(dp263
g6
g7
sg8
S'Waking the Fallen'
p264
sasg10
S'Avenged Sevenfold'
p265
sa(dp266
g3
(lp267
(dp268
g6
g7
sg8
S'At Home'
p269
sa(dp270
g6
g7
sg8
S'Aurora'
p271
sa(dp272
g6
g7
sg8
S'Colors'
p273
sa(dp274
g6
g7
sg8
S'Continuo'
p275
sa(dp276
g6
g7
sg8
S'Gently Disturbed'
p277
sa(dp278
g6
g7
sg8
S'Night of Magic'
p279
sa(dp280
g6
g7
sg8
S'Shaot Regishot'
p281
sasg10
S'Avishai Cohen'
p282
sa(dp283
g3
(lp284
(dp285
g6
g7
sg8
S"One Off's Remixes And B Sides (CD2)"
p286
sasg10
S'Awa Band (feat. Tony Allen)'
p287
sa(dp288
g3
(lp289
(dp290
g6
g7
sg8
S'01011001'
p291
sa(dp292
g6
g7
sg8
S'Actual Fantasy: Revisited'
p293
sa(dp294
g6
g7
sg8
S'Ayreonauts Only'
p295
sa(dp296
g6
g7
sg8
S'Come Back to Me'
p297
sa(dp298
g6
g7
sg8
S'Day Eleven: Love'
p299
sa(dp300
g6
g7
sg8
S'Elected'
p301
sa(dp302
g6
g7
sg8
S'Into the Electric Castle'
p303
sa(dp304
g6
g7
sg8
S'Loser'
p305
sa(dp306
g6
g7
sg8
S'Sail Away to Avalon'
p307
sa(dp308
g6
g7
sg8
S'The Final Experiment'
p309
sa(dp310
g6
g7
sg8
S'Universal Migrator, Part 1: the Dream Sequencer'
p311
sa(dp312
g6
g7
sg8
S'Universal Migrator, Part 2: Flight of the Migrator'
p313
sasg10
S'Ayreon'
p314
sa(dp315
g3
(lp316
(dp317
g6
g7
sg8
S'First Base'
p318
sasg10
S'Babe Ruth'
p319
sa(dp320
g3
(lp321
(dp322
g6
g7
sg8
S"One Off's Remixes And B Sides (CD1)"
p323
sasg10
S'Bathysphere'
p324
sa(dp325
g3
(lp326
(dp327
g6
g7
sg8
S'Sitar & Bossa'
p328
sasg10
S'Bebo Best & Super Lounge Orche'
p329
sa(dp330
g3
(lp331
(dp332
g6
g7
sg8
S'Golden Feelings'
p333
sa(dp334
g6
g7
sg8
S'Guero'
p335
sa(dp336
g6
g7
sg8
S'Guerolito'
p337
sa(dp338
g6
g7
sg8
S'Mellow Gold'
p339
sa(dp340
g6
g7
sg8
S'Midnite Vultures'
p341
sa(dp342
g6
g7
sg8
S'Mutations'
p343
sa(dp344
g6
g7
sg8
S'Odelay'
p345
sa(dp346
g6
g7
sg8
S'One Foot in the Grave'
p347
sa(dp348
g6
g7
sg8
S'Sea Change'
p349
sa(dp350
g6
g7
sg8
S'Songs of Leonard Cohen'
p351
sa(dp352
g6
g7
sg8
S'The Information Deluxe'
p353
sa(dp354
g6
g7
sg8
S'The Velvet Underground & Nico'
p355
sasg10
S'Beck'
p356
sa(dp357
g3
(lp358
(dp359
g6
g7
sg8
S'The Express'
p360
sa(dp361
g6
g7
sg8
S'Turntable Soul Music'
p362
sasg10
S'Belleruche'
p363
sa(dp364
g3
(lp365
(dp366
g6
g7
sg8
S'How Big Can You Get?: The Music of Cab Calloway'
p367
sa(dp368
g6
g7
sg8
S'This Beautiful Life'
p369
sasg10
S'Big Bad Voodoo Daddy'
p370
sa(dp371
g3
(lp372
(dp373
g6
g7
sg8
S'Mr Scruff Presents Keep It Solid Steel'
p374
sasg10
S'Big Youth'
p375
sa(dp376
g3
(lp377
(dp378
g6
g7
sg8
S'Portrait in Jazz'
p379
sa(dp380
g6
g7
sg8
S'Sunday at the Village Vanguard'
p381
sasg10
S'Bill Evans'
p382
sa(dp383
g3
(lp384
(dp385
g6
g7
sg8
S'Billy Talent'
p386
sa(dp387
g6
g7
sg8
S'Billy Talent II'
p388
sa(dp389
g6
g7
sg8
S'Billy Talent III'
p390
sasg10
S'Billy Talent'
p391
sa(dp392
g3
(lp393
(dp394
g6
g7
sg8
S'Debut'
p395
sa(dp396
g6
g7
sg8
S'Homogenic'
p397
sa(dp398
g6
g7
sg8
S'Post'
p399
sa(dp400
g6
g7
sg8
S'Vespertine'
p401
sa(dp402
g6
g7
sg8
S'Volta'
p403
sasg10
S'Bj\xc3\xb6rk'
p404
sa(dp405
g3
(lp406
(dp407
g6
g7
sg8
S'Black Dub'
p408
sasg10
S'Black Dub'
p409
sa(dp410
g3
(lp411
(dp412
g6
g7
sg8
S'Forbidden'
p413
sa(dp414
g6
g7
sg8
S'Heaven and Hell'
p415
sa(dp416
g6
g7
sg8
S'Master of Reality'
p417
sa(dp418
g6
g7
sg8
S'Paranoid'
p419
sa(dp420
g6
g7
sg8
S'Sabbath Bloody Sabbath'
p421
sa(dp422
g6
g7
sg8
S'Sabotage'
p423
sa(dp424
g6
g7
sg8
S'Technical Ecstasy'
p425
sa(dp426
g6
g7
sg8
S'Vol 4'
p427
sasg10
S'Black Sabbath'
p428
sa(dp429
g3
(lp430
(dp431
g6
g7
sg8
S'Miracle'
p432
sa(dp433
g6
g7
sg8
S'Reach For Glory'
p434
sasg10
S'Blackmill'
p435
sa(dp436
g3
(lp437
(dp438
g6
g7
sg8
S'Fires at Midnight'
p439
sa(dp440
g6
g7
sg8
S'Ghost of a Rose'
p441
sa(dp442
g6
g7
sg8
S'Secret Voyage'
p443
sa(dp444
g6
g7
sg8
S'Shadow of the Moon'
p445
sasg10
S"Blackmore's Night"
p446
sa(dp447
g3
(lp448
(dp449
g6
g7
sg8
S'A Night at the Opera'
p450
sa(dp451
g6
g7
sg8
S'Imaginations From the Other Side'
p452
sa(dp453
g6
g7
sg8
S'Somewhere Far Beyond'
p454
sasg10
S'Blind Guardian'
p455
sa(dp456
g3
(lp457
(dp458
g6
g7
sg8
S'Not Here To Please You'
p459
sasg10
S'Bloc Party'
p460
sa(dp461
g3
(lp462
(dp463
g6
g7
sg8
S'Leisure'
p464
sasg10
S'Blur'
p465
sa(dp466
g3
(lp467
(dp468
g6
g7
sg8
S'Aquarius'
p469
sa(dp470
g6
g7
sg8
S'Boc Maxima'
p471
sa(dp472
g6
g7
sg8
S'Geogaddi'
p473
sa(dp474
g6
g7
sg8
S'Hi Scores'
p475
sa(dp476
g6
g7
sg8
S'In a Beautiful Place Out in the Country'
p477
sa(dp478
g6
g7
sg8
S'Music Has the Right to Children'
p479
sa(dp480
g6
g7
sg8
S'Peel Session'
p481
sa(dp482
g6
g7
sg8
S'The Campfire Headphase'
p483
sa(dp484
g6
g7
sg8
S'Trans Canada Highway'
p485
sa(dp486
g6
g7
sg8
S'Twoism'
p487
sasg10
S'Boards of Canada'
p488
sa(dp489
g3
(lp490
(dp491
g6
g7
sg8
S'Blonde on Blonde (Disc 1)'
p492
sa(dp493
g6
g7
sg8
S'Blonde on Blonde (Disc 2)'
p494
sa(dp495
g6
g7
sg8
S'Bob Dylan Highway 61 Revisited'
p496
sasg10
S'Bob Dylan'
p497
sa(dp498
g3
(lp499
(dp500
g6
g7
sg8
S'Legend (Deluxe Edition)'
p501
sasg10
S'Bob Marley'
p502
sa(dp503
g3
(lp504
(dp505
g6
g7
sg8
S'Further Down on the Road'
p506
sa(dp507
g6
g7
sg8
S'Further on the Road'
p508
sasg10
S'Bob Walsh'
p509
sa(dp510
g3
(lp511
(dp512
g6
g7
sg8
S'Not Here To Please You'
p513
sasg10
S'Bolt Action Five'
p514
sa(dp515
g3
(lp516
(dp517
g6
g7
sg8
S'Blood Bank'
p518
sa(dp519
g6
g7
sg8
S'For Emma, Forever Ago'
p520
sasg10
S'Bon Iver'
p521
sa(dp522
g3
(lp523
(dp524
g6
g7
sg8
S'Animal Magic'
p525
sa(dp526
g6
g7
sg8
S'Black Sands'
p527
sa(dp528
g6
g7
sg8
S'Days to Come'
p529
sa(dp530
g6
g7
sg8
S"Dial 'm' for Monkey"
p531
sa(dp532
g6
g7
sg8
S'One Offs... Remixes & B-Sides'
p533
sasg10
S'Bonobo'
p534
sa(dp535
g3
(lp536
(dp537
g6
g7
sg8
S'Mr Scruff Presents Keep It Solid Steel'
p538
sasg10
S'Border Crossing'
p539
sa(dp540
g3
(lp541
(dp542
g6
g7
sg8
S'Prokofiev: Complete Piano Music, Vol. 1 [Chandos]'
p543
sasg10
S'Boris Berman'
p544
sa(dp545
g3
(lp546
(dp547
g6
g7
sg8
S'Boris Vian Chante Vian'
p548
sasg10
S'Boris Vian'
p549
sa(dp550
g3
(lp551
(dp552
g6
g7
sg8
S'Anything Goes'
p553
sa(dp554
g6
g7
sg8
S'Bimhuis Amsterdam'
p555
sa(dp556
g6
g7
sg8
S'The Art of the Trio, Vol. 1'
p557
sasg10
S'Brad Mehldau'
p558
sa(dp559
g3
(lp560
(dp561
g6
g7
sg8
S'Discosis'
p562
sasg10
S'Bran Van 3000'
p563
sa(dp564
g3
(lp565
(dp566
g6
g7
sg8
S'The Pearl'
p567
sasg10
S'Brian Eno'
p568
sa(dp569
g3
(lp570
(dp571
g6
g7
sg8
S'Chicken Noodles II'
p572
sasg10
S'Buckethead / Travis Dickerson'
p573
sa(dp574
g3
(lp575
(dp576
g6
g7
sg8
S'At Carnegie Hall'
p577
sasg10
S'Buena Vista Social Club'
p578
sa(dp579
g3
(lp580
(dp581
g6
g7
sg8
S'Technology: Western Re-Works 1992'
p582
sasg10
S'Cabaret Voltaire'
p583
sa(dp584
g3
(lp585
(dp586
g6
g7
sg8
S'Dust and Dreams'
p587
sa(dp588
g6
g7
sg8
S'I Can See Your House From Here'
p589
sa(dp590
g6
g7
sg8
S'Nude'
p591
sa(dp592
g6
g7
sg8
S'Rain Dances'
p593
sa(dp594
g6
g7
sg8
S'The Snow Goose'
p595
sasg10
S'Camel'
p596
sa(dp597
g3
(lp598
(dp599
g6
g7
sg8
S"L'arbre aux parfums"
p600
sasg10
S'Caracol'
p601
sa(dp602
g3
(lp603
(dp604
g6
g7
sg8
S'Caravan'
p605
sa(dp606
g6
g7
sg8
S'In the Land of Grey and Pink'
p607
sasg10
S'Caravan'
p608
sa(dp609
g3
(lp610
(dp611
g6
g7
sg8
S'Caravan Palace'
p612
sasg10
S'Caravan Palace'
p613
sa(dp614
g3
(lp615
(dp616
g6
g7
sg8
S'Coming to Terms'
p617
sasg10
S'Carolina Liar'
p618
sa(dp619
g3
(lp620
(dp621
g6
g7
sg8
S'Carptree'
p622
sa(dp623
g6
g7
sg8
S'Superhero'
p624
sasg10
S'Carptree'
p625
sa(dp626
g3
(lp627
(dp628
g6
g7
sg8
S'Greatest Hits'
p629
sasg10
S'Cat Stevens'
p630
sa(dp631
g3
(lp632
(dp633
g6
g7
sg8
S'Greatest Hits and More'
p634
sasg10
S'Charles Aznavour'
p635
sa(dp636
g3
(lp637
(dp638
g6
g7
sg8
S'O3: A Trilogy - Part One'
p639
sasg10
S'Charlie Dominici'
p640
sa(dp641
g3
(lp642
(dp643
g6
g7
sg8
S'Double Concerto, Mozart'
p644
sa(dp645
g6
g7
sg8
S'Expressions - Solo Piano'
p646
sa(dp647
g6
g7
sg8
S'My Spanish Heart'
p648
sa(dp649
g6
g7
sg8
S'Septet'
p650
sasg10
S'Chick Corea'
p651
sa(dp652
g3
(lp653
(dp654
g6
g7
sg8
S'Chickenfoot'
p655
sa(dp656
g6
g7
sg8
S'Chickenfoot III'
p657
sasg10
S'Chickenfoot'
p658
sa(dp659
g3
(lp660
(dp661
g6
g7
sg8
S'Are You Dead Yet'
p662
sa(dp663
g6
g7
sg8
S'Are You Dead Yet?'
p664
sa(dp665
g6
g7
sg8
S'Follow the Reaper'
p666
sa(dp667
g6
g7
sg8
S'Hate Crew Deathroll'
p668
sa(dp669
g6
g7
sg8
S'Hatebreeder'
p670
sa(dp671
g6
g7
sg8
S'Nuclear Blast Soundcheck Series, Volume 13'
p672
sa(dp673
g6
g7
sg8
S'Something Wild'
p674
sa(dp675
g6
g7
sg8
S'Stockholm Knockout Live'
p676
sa(dp677
g6
g7
sg8
S'Tokyo Warhearts'
p678
sasg10
S'Children of Bodom'
p679
sa(dp680
g3
(lp681
(dp682
g6
g7
sg8
S'Ivory Tower'
p683
sasg10
S'Chilly Gonzales'
p684
sa(dp685
g3
(lp686
(dp687
g6
g7
sg8
S'The Groove Sessions'
p688
sa(dp689
g6
g7
sg8
S'The Indi Groove EP Vinyl'
p690
sasg10
S'Chinese Man'
p691
sa(dp692
g3
(lp693
(dp694
g6
g7
sg8
S'Mr Scruff Presents Keep It Solid Steel'
p695
sasg10
S'Chocolate Milk'
p696
sa(dp697
g3
(lp698
(dp699
g6
g7
sg8
S'Chopin - Polonaises'
p700
sasg10
S'Chopin'
p701
sa(dp702
g3
(lp703
(dp704
g6
g7
sg8
S'Pieces of Africa'
p705
sasg10
S'Chronos Quartet'
p706
sa(dp707
g3
(lp708
(dp709
g6
g7
sg8
S'Civil Twilight'
p710
sasg10
S'Civil Twilight'
p711
sa(dp712
g3
(lp713
(dp714
g6
g7
sg8
S'Suite for Cello & Jazz Piano Trio'
p715
sa(dp716
g6
g7
sg8
S'Suite for Violin & Jazz Piano'
p717
sasg10
S'Claude Bolling'
p718
sa(dp719
g3
(lp720
(dp721
g6
g7
sg8
S'Requiem for a Dream'
p722
sa(dp723
g6
g7
sg8
S'The Fountain'
p724
sasg10
S'Clint Mansell'
p725
sa(dp726
g3
(lp727
(dp728
g6
g7
sg8
S'Swop (AC2038)'
p729
sasg10
S'Club Des Belugas'
p730
sa(dp731
g3
(lp732
(dp733
g6
g7
sg8
S'Coeur de Pirate'
p734
sasg10
S'Coeur de Pirate'
p735
sa(dp736
g3
(lp737
(dp738
g6
g7
sg8
S'A Rush of Blood to the Head'
p739
sa(dp740
g6
g7
sg8
S'Mylo Xyloto'
p741
sa(dp742
g6
g7
sg8
S'Parachutes'
p743
sa(dp744
g6
g7
sg8
S'Viva la Vida or Death and All His Friends'
p745
sa(dp746
g6
g7
sg8
S'X&Y'
p747
sasg10
S'Coldplay'
p748
sa(dp749
g3
(lp750
(dp751
g6
g7
sg8
S'Mr Scruff Presents Keep It Solid Steel'
p752
sasg10
S'Connie Price & The Keystones'
p753
sa(dp754
g3
(lp755
(dp756
g6
g7
sg8
S"Wheels of Fire CD1 'in the Studio'"
p757
sa(dp758
g6
g7
sg8
S"Wheels of Fire CD2 'live at the Fillmore'"
p759
sasg10
S'Cream'
p760
sa(dp761
g3
(lp762
(dp763
g6
g7
sg8
S"One Off's Remixes And B Sides (CD2)"
p764
sasg10
S'DJ Angola'
p765
sa(dp766
g3
(lp767
(dp768
g6
g7
sg8
S'Alive 1997'
p769
sa(dp770
g6
g7
sg8
S'Daft Club'
p771
sa(dp772
g6
g7
sg8
S'Discovery'
p773
sa(dp774
g6
g7
sg8
S'Homework'
p775
sa(dp776
g6
g7
sg8
S'Human After All'
p777
sa(dp778
g6
g7
sg8
S'Technologic (Aussie E.P.)'
p779
sa(dp780
g6
g7
sg8
S'Tron: Legacy (Cd1)'
p781
sasg10
S'Daft Punk'
p782
sa(dp783
g3
(lp784
(dp785
g6
g7
sg8
S'9'
sasg10
S'Damien Rice'
p786
sa(dp787
g3
(lp788
(dp789
g6
g7
sg8
S'Acadie [Goldtop Edition]'
p790
sa(dp791
g6
g7
sg8
S'Belladonna'
p792
sa(dp793
g6
g7
sg8
S'Shine'
p794
sasg10
S'Daniel Lanois'
p795
sa(dp796
g3
(lp797
(dp798
g6
g7
sg8
S'Music for a Darkened Theatre (Vol.2) - Disc 2'
p799
sa(dp800
g6
g7
sg8
S'Music for a Darkened Theatre (Vol.2) - Disc1'
p801
sasg10
S'Danny Elfman'
p802
sa(dp803
g3
(lp804
(dp805
g6
g7
sg8
S'A Moonclad Reflection EP'
p806
sa(dp807
g6
g7
sg8
S'Broken (Sentenced Cover)'
p808
sa(dp809
g6
g7
sg8
S'Character'
p810
sa(dp811
g6
g7
sg8
S'Damage Done'
p812
sa(dp813
g6
g7
sg8
S'Enter Suicidal Angels EP'
p814
sa(dp815
g6
g7
sg8
S'Fiction'
p816
sa(dp817
g6
g7
sg8
S'Haven'
p818
sa(dp819
g6
g7
sg8
S'Lost to Apathy EP'
p820
sa(dp821
g6
g7
sg8
S'Of Chaos and Eternal Night EP'
p822
sa(dp823
g6
g7
sg8
S'Projector'
p824
sa(dp825
g6
g7
sg8
S'Skydancer'
p826
sa(dp827
g6
g7
sg8
S'The Gallery'
p828
sa(dp829
g6
g7
sg8
S"The Mind's I"
p830
sasg10
S'Dark Tranquillity'
p831
sa(dp832
g3
(lp833
(dp834
g6
g7
sg8
S'Paper Monsters'
p835
sasg10
S'Dave Gahan'
p836
sa(dp837
g3
(lp838
(dp839
g6
g7
sg8
S'The Singles Collection (Disc 1)'
p840
sa(dp841
g6
g7
sg8
S'The Singles Collection (Disc 2)'
p842
sasg10
S'David Bowie'
p843
sa(dp844
g3
(lp845
(dp846
g6
g7
sg8
S'About Face'
p847
sa(dp848
g6
g7
sg8
S'On an Island'
p849
sasg10
S'David Gilmour'
p850
sa(dp851
g3
(lp852
(dp853
g6
g7
sg8
S'Godsdog'
p854
sasg10
S'De-Phazz'
p855
sa(dp856
g3
(lp857
(dp858
g6
g7
sg8
S"The Serpent's Egg"
p859
sasg10
S'Dead Can Dance'
p860
sa(dp861
g3
(lp862
(dp863
g6
g7
sg8
S'A Lullaby for the Devil'
p864
sasg10
S'Dead Soul Tribe'
p865
sa(dp866
g3
(lp867
(dp868
g6
g7
sg8
S'4 X 4 = 12'
p869
sa(dp870
g6
g7
sg8
S'For Lack of a Better Name'
p871
sasg10
S'Deadmau5'
p872
sa(dp873
g3
(lp874
(dp875
g6
g7
sg8
S'Human'
p876
sasg10
S'Death'
p877
sa(dp878
g3
(lp879
(dp880
g6
g7
sg8
S'Transatlanticism'
p881
sasg10
S'Death Cab for Cutie'
p882
sa(dp883
g3
(lp884
(dp885
g6
g7
sg8
S'Abandon'
p886
sa(dp887
g6
g7
sg8
S'Bananas'
p888
sa(dp889
g6
g7
sg8
S'Burn'
p890
sa(dp891
g6
g7
sg8
S'Come Taste the Band'
p892
sa(dp893
g6
g7
sg8
S'Concerto for Group and Orchestra (The Royal Philharmonic Orchestra Feat. Conductor: Malcolm Arnold)'
p894
sa(dp895
g6
g7
sg8
S'Deep Purple'
p896
sa(dp897
g6
g7
sg8
S'Deep Purple in Rock'
p898
sa(dp899
g6
g7
sg8
S'Fireball'
p900
sa(dp901
g6
g7
sg8
S'Hush'
p902
sa(dp903
g6
g7
sg8
S'Machine Head'
p904
sa(dp905
g6
g7
sg8
S'Made in Europe'
p906
sa(dp907
g6
g7
sg8
S'Made in Japan'
p908
sa(dp909
g6
g7
sg8
S'Perfect Strangers'
p910
sa(dp911
g6
g7
sg8
S'Purpendicular'
p912
sa(dp913
g6
g7
sg8
S'Slaves and Masters'
p914
sa(dp915
g6
g7
sg8
S'Stormbringer'
p916
sa(dp917
g6
g7
sg8
S'The Battle Rages on...'
p918
sa(dp919
g6
g7
sg8
S'The House of Blue Light'
p920
sasg10
S'Deep Purple'
p921
sa(dp922
g3
(lp923
(dp924
g6
g7
sg8
S'Adrenalize'
p925
sa(dp926
g6
g7
sg8
S"High 'n' Dry"
p927
sa(dp928
g6
g7
sg8
S'Hysteria'
p929
sa(dp930
g6
g7
sg8
S'On Through The Night'
p931
sa(dp932
g6
g7
sg8
S'Pyromania'
p933
sa(dp934
g6
g7
sg8
S'Retro Active'
p935
sa(dp936
g6
g7
sg8
S'Slang'
p937
sa(dp938
g6
g7
sg8
S'Songs From the Sparkle Lounge'
p939
sa(dp940
g6
g7
sg8
S'X'
sa(dp941
g6
g7
sg8
S'Yeah!'
p942
sasg10
S'Def Leppard'
p943
sa(dp944
g3
(lp945
(dp946
g6
g7
sg8
S'Euphoria\x00'
p947
sasg10
S'Def Leppard\x00'
p948
sa(dp949
g3
(lp950
(dp951
g6
g7
sg8
S'White Pony'
p952
sasg10
S'Deftones'
p953
sa(dp954
g3
(lp955
(dp956
g6
g7
sg8
S'Odyssey - the remix Collection CD1'
p957
sa(dp958
g6
g7
sg8
S'Odyssey - the remix Collection CD2'
p959
sasg10
S'Delerium'
p960
sa(dp961
g3
(lp962
(dp963
g6
g7
sg8
S'Mr Scruff Presents Keep It Solid Steel'
p964
sasg10
S'Demon Boyz'
p965
sa(dp966
g3
(lp967
(dp968
g6
g7
sg8
S'A Broken Frame (2006 Remastered)'
p969
sa(dp970
g6
g7
sg8
S'Construction Time Again (2007 Remastered)'
p971
sa(dp972
g6
g7
sg8
S'Playing the Angel'
p973
sa(dp974
g6
g7
sg8
S'Sounds of the Universe'
p975
sa(dp976
g6
g7
sg8
S'Violator'
p977
sa(dp978
g6
g7
sg8
S'Wrong'
p979
sasg10
S'Depeche Mode'
p980
sa(dp981
g3
(lp982
(dp983
g6
g7
sg8
S'In a Bar, Under the Sea'
p984
sa(dp985
g6
g7
sg8
S'Keep You Close'
p986
sa(dp987
g6
g7
sg8
S'Little Arithmetics'
p988
sa(dp989
g6
g7
sg8
S'My Sister Is My Clock'
p990
sa(dp991
g6
g7
sg8
S'Pocket Revolution'
p992
sa(dp993
g6
g7
sg8
S'The Ideal Crash'
p994
sa(dp995
g6
g7
sg8
S'Vantage Point'
p996
sa(dp997
g6
g7
sg8
S'Worst Case Scenario'
p998
sasg10
S'Deus'
p999
sa(dp1000
g3
(lp1001
(dp1002
g6
g7
sg8
S'Accelerated Evolution'
p1003
sasg10
S'Devin Townsend'
p1004
sa(dp1005
g3
(lp1006
(dp1007
g6
g7
sg8
S'Enthrone Darkness Triumphant'
p1008
sasg10
S'Dimmu Borgir'
p1009
sa(dp1010
g3
(lp1011
(dp1012
g6
g7
sg8
S'Holy Diver'
p1013
sa(dp1014
g6
g7
sg8
S'Holy Diver Live'
p1015
sasg10
S'Dio'
p1016
sa(dp1017
g3
(lp1018
(dp1019
g6
g7
sg8
S'Alchemy: Dire Straits Live'
p1020
sa(dp1021
g6
g7
sg8
S'Brothers in Arms'
p1022
sa(dp1023
g6
g7
sg8
S'Dire Straits'
p1024
sa(dp1025
g6
g7
sg8
S'Live at the BBC'
p1026
sa(dp1027
g6
g7
sg8
S'Love Over Gold'
p1028
sa(dp1029
g6
g7
sg8
S'Making Movies'
p1030
sa(dp1031
g6
g7
sg8
S'On Every Street'
p1032
sa(dp1033
g6
g7
sg8
S'On the Night'
p1034
sasg10
S'Dire Straits'
p1035
sa(dp1036
g3
(lp1037
(dp1038
g6
g7
sg8
S'Swing & Champagne'
p1039
sasg10
S"Dope Noir Presents Waldeck' Gramophone Vol 1"
p1040
sa(dp1041
g3
(lp1042
(dp1043
g6
g7
sg8
S'A Change of Seasons'
p1044
sa(dp1045
g6
g7
sg8
S'A Dramatic Turn of Events'
p1046
sa(dp1047
g6
g7
sg8
S'Awake'
p1048
sa(dp1049
g6
g7
sg8
S'Black Clouds & Silver Linings'
p1050
sa(dp1051
g6
g7
sg8
S'Falling Into Infinity'
p1052
sa(dp1053
g6
g7
sg8
S'Images and Words'
p1054
sa(dp1055
g6
g7
sg8
S'Live Scenes From New York'
p1056
sa(dp1057
g6
g7
sg8
S'Live at Budokan'
p1058
sa(dp1059
g6
g7
sg8
S'Live at the Marquee'
p1060
sa(dp1061
g6
g7
sg8
S'Metropolis Pt.2: Scenes From a Memory'
p1062
sa(dp1063
g6
g7
sg8
S'Octavarium'
p1064
sa(dp1065
g6
g7
sg8
S'Six Degrees of Inner Turbulence'
p1066
sa(dp1067
g6
g7
sg8
S'Train of Thought'
p1068
sa(dp1069
g6
g7
sg8
S'When Dream and Day Unite'
p1070
sa(dp1071
g6
g7
sg8
S'When Dream and Day Unite (Remaster)'
p1072
sasg10
S'Dream Theater'
p1073
sa(dp1074
g3
(lp1075
(dp1076
g6
g7
sg8
S'Mr Scruff Presents Keep It Solid Steel'
p1077
sasg10
S'Dred Scott'
p1078
sa(dp1079
g3
(lp1080
(dp1081
g6
g7
sg8
S"One Off's Remixes And B Sides (CD2)"
p1082
sasg10
S'Dublex Inc.'
p1083
sa(dp1084
g3
(lp1085
(dp1086
g6
g7
sg8
S'Soul Call'
p1087
sasg10
S'Duke Ellington and His Orchestra'
p1088
sa(dp1089
g3
(lp1090
(dp1091
g6
g7
sg8
S"One Off's Remixes And B Sides (CD1)"
p1092
sasg10
S'Dynamoe'
p1093
sa(dp1094
g3
(lp1095
(dp1096
g6
g7
sg8
S'Hell Freezes Over'
p1097
sa(dp1098
g6
g7
sg8
S'Hotel California'
p1099
sasg10
S'Eagles'
p1100
sa(dp1101
g3
(lp1102
(dp1103
g6
g7
sg8
S'Mr Scruff Presents Keep It Solid Steel'
p1104
sasg10
S'Eighth From The Egg'
p1105
sa(dp1106
g3
(lp1107
(dp1108
g6
g7
sg8
S'El Ten Eleven'
p1109
sa(dp1110
g6
g7
sg8
S'Every Direction Is North'
p1111
sa(dp1112
g6
g7
sg8
S'These Promises Are Being Videotaped'
p1113
sasg10
S'El Ten Eleven'
p1114
sa(dp1115
g3
(lp1116
(dp1117
g6
g7
sg8
S'Flashback'
p1118
sasg10
S'Electric Light Orchestra'
p1119
sa(dp1120
g3
(lp1121
(dp1122
g6
g7
sg8
S'Elfon\xc3\xada'
p1123
sa(dp1124
g6
g7
sg8
S'This Sonic Landscape'
p1125
sasg10
S'Elfon\xc3\xada'
p1126
sa(dp1127
g3
(lp1128
(dp1129
g6
g7
sg8
S'Chronicles.Vol.1 & Vol.2'
p1130
sa(dp1131
g6
g7
sg8
S'Colours'
p1132
sa(dp1133
g6
g7
sg8
S'Dawn'
p1134
sa(dp1135
g6
g7
sg8
S'Eloy'
p1136
sa(dp1137
g6
g7
sg8
S'Floating'
p1138
sa(dp1139
g6
g7
sg8
S'Inside'
p1140
sa(dp1141
g6
g7
sg8
S'Live'
p1142
sa(dp1143
g6
g7
sg8
S'Metromania'
p1144
sa(dp1145
g6
g7
sg8
S'Ocean'
p1146
sa(dp1147
g6
g7
sg8
S'Ocean 2: the Answer'
p1148
sa(dp1149
g6
g7
sg8
S'Performance'
p1150
sa(dp1151
g6
g7
sg8
S'Planets'
p1152
sa(dp1153
g6
g7
sg8
S'Ra'
p1154
sa(dp1155
g6
g7
sg8
S'Rarities'
p1156
sa(dp1157
g6
g7
sg8
S'Silent Cries and Mighty Echoes'
p1158
sa(dp1159
g6
g7
sg8
S'The Tides Return Forever'
p1160
sa(dp1161
g6
g7
sg8
S'Timeless Passages (Disc 1)'
p1162
sa(dp1163
g6
g7
sg8
S'Timeless Passages (Disc 2)'
p1164
sasg10
S'Eloy'
p1165
sa(dp1166
g3
(lp1167
(dp1168
g6
g7
sg8
S'Brain Salad Surgery'
p1169
sa(dp1170
g6
g7
sg8
S'Emerson, Lake and Palmer'
p1171
sa(dp1172
g6
g7
sg8
S'Pictures at an Exhibition'
p1173
sa(dp1174
g6
g7
sg8
S'Tarkus'
p1175
sa(dp1176
g6
g7
sg8
S'Trilogy'
p1177
sasg10
S'Emerson, Lake and Palmer'
p1178
sa(dp1179
g3
(lp1180
(dp1181
g6
g7
sg8
S'Cut in Half and Double'
p1182
sa(dp1183
g6
g7
sg8
S"Knives Don't Have Your Back"
p1184
sa(dp1185
g6
g7
sg8
S'What Is Free to a Good Home?'
p1186
sasg10
S'Emily Haines'
p1187
sa(dp1188
g3
(lp1189
(dp1190
g6
g7
sg8
S'The Eminem Show'
p1191
sasg10
S'Eminem'
p1192
sa(dp1193
g3
(lp1194
(dp1195
g6
g7
sg8
S'Super Gold Edition (Cd 1)'
p1196
sa(dp1197
g6
g7
sg8
S'Super Gold Edition (Cd 2)'
p1198
sa(dp1199
g6
g7
sg8
S'Super Gold Edition (Cd 3)'
p1200
sa(dp1201
g6
g7
sg8
S'Super Gold Edition (Cd 4)'
p1202
sa(dp1203
g6
g7
sg8
S'Super Gold Edition (Cd 5)'
p1204
sa(dp1205
g6
g7
sg8
S'Super Gold Edition (Cd 6)'
p1206
sasg10
S'Ennio Morricone'
p1207
sa(dp1208
g3
(lp1209
(dp1210
g6
g7
sg8
S'And Winter Came...'
p1211
sasg10
S'Enya'
p1212
sa(dp1213
g3
(lp1214
(dp1215
g6
g7
sg8
S'461 Ocean Boulevard'
p1216
sa(dp1217
g6
g7
sg8
S'Back Home'
p1218
sa(dp1219
g6
g7
sg8
S'Journeyman'
p1220
sa(dp1221
g6
g7
sg8
S'Pilgrim'
p1222
sa(dp1223
g6
g7
sg8
S'Unplugged'
p1224
sasg10
S'Eric Clapton'
p1225
sa(dp1226
g3
(lp1227
(dp1228
g6
g7
sg8
S'The Walk of the Giant Turtle'
p1229
sasg10
S'Erik Truffaz'
p1230
sa(dp1231
g3
(lp1232
(dp1233
g6
g7
sg8
S'Eskmo'
p1234
sasg10
S'Eskmo'
p1235
sa(dp1236
g3
(lp1237
(dp1238
g6
g7
sg8
S'Anywhere but Home'
p1239
sa(dp1240
g6
g7
sg8
S'Bring Me to Life'
p1241
sa(dp1242
g6
g7
sg8
S"Call Me When You're Sober"
p1243
sa(dp1244
g6
g7
sg8
S'Evanescence'
p1245
sa(dp1246
g6
g7
sg8
S"Everybody's Fool"
p1247
sa(dp1248
g6
g7
sg8
S'Fallen'
p1249
sa(dp1250
g6
g7
sg8
S'Going Under'
p1251
sa(dp1252
g6
g7
sg8
S'Lithium'
p1253
sa(dp1254
g6
g7
sg8
S'My Immortal'
p1255
sa(dp1256
g6
g7
sg8
S'Mystary EP'
p1257
sa(dp1258
g6
g7
sg8
S'Origin'
p1259
sa(dp1260
g6
g7
sg8
S'The Open Door'
p1261
sasg10
S'Evanescence'
p1262
sa(dp1263
g3
(lp1264
(dp1265
g6
g7
sg8
S'Who Cares a Lot? the Greatest Hits'
p1266
sa(dp1267
g6
g7
sg8
S'Who Cares a Lot? the Greatest Hits (Bonus CD)'
p1268
sasg10
S'Faith No More'
p1269
sa(dp1270
g3
(lp1271
(dp1272
g6
g7
sg8
S'Fever Ray (Deluxe Edition)'
p1273
sasg10
S'Fever Ray'
p1274
sa(dp1275
g3
(lp1276
(dp1277
g6
g7
sg8
S'Bouillabaisse the Best of Fish Disc 1 Balladeer'
p1278
sa(dp1279
g6
g7
sg8
S'Bouillabaisse the Best of Fish Disc 2 Rocketeer'
p1280
sa(dp1281
g6
g7
sg8
S'Fish'
p1282
sa(dp1283
g6
g7
sg8
S'Raingods With Zippos'
p1284
sasg10
S'Fish'
p1285
sa(dp1286
g3
(lp1287
(dp1288
g6
g7
sg8
S'Echoes, Silence, Patience And Grace'
p1289
sa(dp1290
g6
g7
sg8
S'Foo Fighters'
p1291
sa(dp1292
g6
g7
sg8
S'In Your Honor (Disc 1)'
p1293
sa(dp1294
g6
g7
sg8
S'In Your Honor (Disc 2)'
p1295
sa(dp1296
g6
g7
sg8
S'One By One'
p1297
sa(dp1298
g6
g7
sg8
S'Skin And Bones'
p1299
sa(dp1300
g6
g7
sg8
S'The Colour And The Shape'
p1301
sa(dp1302
g6
g7
sg8
S'The Colour And The Shape (Bonus CD)'
p1303
sa(dp1304
g6
g7
sg8
S'There Is Nothing Left To Lose'
p1305
sasg10
S'Foo Fighters'
p1306
sa(dp1307
g3
(lp1308
(dp1309
g6
g7
sg8
S"Can't Slow Down- Disc 1"
p1310
sa(dp1311
g6
g7
sg8
S'The Remixes (Disc 2)'
p1312
sasg10
S'Foreigner'
p1313
sa(dp1314
g3
(lp1315
(dp1316
g6
g7
sg8
S'The Best Band You Never Heard in Your Life'
p1317
sasg10
S'Frank Zappa'
p1318
sa(dp1319
g3
(lp1320
(dp1321
g6
g7
sg8
S'Welcome to the Pleasuredome'
p1322
sasg10
S'Frankie Goes to Hollywood'
p1323
sa(dp1324
g3
(lp1325
(dp1326
g6
g7
sg8
S'Blood'
p1327
sa(dp1328
g6
g7
sg8
S'Franz Ferdinand'
p1329
sa(dp1330
g6
g7
sg8
S'Tonight'
p1331
sasg10
S'Franz Ferdinand'
p1332
sa(dp1333
g3
(lp1334
(dp1335
g6
g7
sg8
S'Red Clay'
p1336
sasg10
S'Freddie Hubbard'
p1337
sa(dp1338
g3
(lp1339
(dp1340
g6
g7
sg8
S'Free The Robots'
p1341
sasg10
S'Free The Robots'
p1342
sa(dp1343
g3
(lp1344
(dp1345
g6
g7
sg8
S'The Prototype'
p1346
sasg10
S'Free the Robots'
p1347
sa(dp1348
g3
(lp1349
(dp1350
g6
g7
sg8
S'Dimensions'
p1351
sasg10
S'Freedom Call'
p1352
sa(dp1353
g3
(lp1354
(dp1355
g6
g7
sg8
S"One Off's Remixes And B Sides (CD1)"
p1356
sasg10
S'Future Loop Foundation'
p1357
sa(dp1358
g3
(lp1359
(dp1360
g6
g7
sg8
S'Dead Cities'
p1361
sa(dp1362
g6
g7
sg8
S'From the Archives Vol. 3'
p1363
sa(dp1364
g6
g7
sg8
S'From the Archives Vol.1'
p1365
sa(dp1366
g6
g7
sg8
S'From the Archives Vol.2'
p1367
sasg10
S'Future Sound of London'
p1368
sa(dp1369
g3
(lp1370
(dp1371
g6
g7
sg8
S'Tigre Et Diesel'
p1372
sasg10
S'Galaxie'
p1373
sa(dp1374
g3
(lp1375
(dp1376
g6
g7
sg8
S'Heading for Tomorrow'
p1377
sa(dp1378
g6
g7
sg8
S'Insanity and Genius'
p1379
sa(dp1380
g6
g7
sg8
S'Land of the Free'
p1381
sa(dp1382
g6
g7
sg8
S'Land of the Free II'
p1383
sa(dp1384
g6
g7
sg8
S'Majestic'
p1385
sa(dp1386
g6
g7
sg8
S'No World Order'
p1387
sa(dp1388
g6
g7
sg8
S'Powerplant'
p1389
sa(dp1390
g6
g7
sg8
S'Rebellion in Dreamland'
p1391
sa(dp1392
g6
g7
sg8
S'Sigh No More'
p1393
sa(dp1394
g6
g7
sg8
S'Skeletons in the Closet'
p1395
sa(dp1396
g6
g7
sg8
S'Somewhere Out in Space'
p1397
sa(dp1398
g6
g7
sg8
S'Valley of the Kings'
p1399
sasg10
S'Gamma Ray'
p1400
sa(dp1401
g3
(lp1402
(dp1403
g6
g7
sg8
S'Absolute Garbage'
p1404
sasg10
S'Garbage'
p1405
sa(dp1406
g3
(lp1407
(dp1408
g6
g7
sg8
S'Missa Atropos'
p1409
sa(dp1410
g6
g7
sg8
S'Night'
p1411
sa(dp1412
g6
g7
sg8
S'Tick Tock'
p1413
sasg10
S'Gazpacho'
p1414
sa(dp1415
g3
(lp1416
(dp1417
g6
g7
sg8
S"One Off's Remixes And B Sides (CD1)"
p1418
sasg10
S'Gecko Turner'
p1419
sa(dp1420
g3
(lp1421
(dp1422
g6
g7
sg8
S'Foxtrot'
p1423
sa(dp1424
g6
g7
sg8
S'Genesis Box Set 1970-1975 Extras'
p1425
sa(dp1426
g6
g7
sg8
S'Nursery Cryme'
p1427
sa(dp1428
g6
g7
sg8
S'Selling England by the Pound'
p1429
sa(dp1430
g6
g7
sg8
S'The Lamb Lies Down on Broadway'
p1431
sa(dp1432
g6
g7
sg8
S'Trespass'
p1433
sasg10
S'Genesis'
p1434
sa(dp1435
g3
(lp1436
(dp1437
g6
g7
sg8
S'The Missing Piece + Giant for a Day'
p1438
sasg10
S'Gentle Giant'
p1439
sa(dp1440
g3
(lp1441
(dp1442
g6
g7
sg8
S'Best of Dark Horse 1976-1989'
p1443
sasg10
S'George Harrison'
p1444
sa(dp1445
g3
(lp1446
(dp1447
g6
g7
sg8
S'Awake'
p1448
sa(dp1449
g6
g7
sg8
S'Faceless'
p1450
sa(dp1451
g6
g7
sg8
S'The Other Side'
p1452
sasg10
S'Godsmack'
p1453
sa(dp1454
g3
(lp1455
(dp1456
g6
g7
sg8
S'F\xe2\x99\xaf a\xe2\x99\xaf \xe2\x88\x9e'
p1457
sa(dp1458
g6
g7
sg8
S'Lift Yr. Skinny Fists Like Antennas to Heaven!'
p1459
sa(dp1460
g6
g7
sg8
S'Slow Riot for New Zero Kanada'
p1461
sasg10
S'Godspeed You Black Emperor!'
p1462
sa(dp1463
g3
(lp1464
(dp1465
g6
g7
sg8
S'Black Cherry'
p1466
sa(dp1467
g6
g7
sg8
S'Felt Mountain'
p1468
sa(dp1469
g6
g7
sg8
S'Felt Mountain - Special Edition Bonus Disc'
p1470
sa(dp1471
g6
g7
sg8
S'Head First'
p1472
sa(dp1473
g6
g7
sg8
S'Supernature'
p1474
sa(dp1475
g6
g7
sg8
S'We Are Glitter'
p1476
sasg10
S'Goldfrapp'
p1477
sa(dp1478
g3
(lp1479
(dp1480
g6
g7
sg8
S'D-Sides (Cd 1)'
p1481
sa(dp1482
g6
g7
sg8
S'D-Sides (Cd 2)'
p1483
sa(dp1484
g6
g7
sg8
S'Gorillaz'
p1485
sa(dp1486
g6
g7
sg8
S'Plastic Beach'
p1487
sasg10
S'Gorillaz'
p1488
sa(dp1489
g3
(lp1490
(dp1491
g6
g7
sg8
S'La Revancha Del Tango'
p1492
sa(dp1493
g6
g7
sg8
S'Tango 3.0'
p1494
sasg10
S'Gotan Project'
p1495
sa(dp1496
g3
(lp1497
(dp1498
g6
g7
sg8
S'American Idiot'
p1499
sa(dp1500
g6
g7
sg8
S'Dookie'
p1501
sasg10
S'Green Day'
p1502
sa(dp1503
g3
(lp1504
(dp1505
g6
g7
sg8
S'Appetite for Destruction'
p1506
sa(dp1507
g6
g7
sg8
S'Chinese Democracy'
p1508
sa(dp1509
g6
g7
sg8
S'Use Your Illusion I'
p1510
sa(dp1511
g6
g7
sg8
S'Use Your Illusion II'
p1512
sasg10
S"Guns N' Roses"
p1513
sa(dp1514
g3
(lp1515
(dp1516
g6
g7
sg8
S'The Sweet Escape'
p1517
sasg10
S'Gwen Stefani'
p1518
sa(dp1519
g3
(lp1520
(dp1521
g6
g7
sg8
S'Biomechanik Pulse - Compiled By DJ Avizz'
p1522
sa(dp1523
g6
g7
sg8
S'Leap Of Faith (Remixes)'
p1524
sa(dp1525
g6
g7
sg8
S'Turn The Lights Out'
p1526
sasg10
S'Hadouken'
p1527
sa(dp1528
g3
(lp1529
(dp1530
g6
g7
sg8
S'Crank It Up'
p1531
sa(dp1532
g6
g7
sg8
S'Declaration Of War'
p1533
sa(dp1534
g6
g7
sg8
S'Declaration of War'
p1535
sa(dp1536
g6
g7
sg8
S'For The Masses'
p1537
sa(dp1538
g6
g7
sg8
S'For the Masses'
p1539
sa(dp1540
g6
g7
sg8
S'Liquid Lives (CDM)'
p1541
sa(dp1542
g6
g7
sg8
S'Liquid Lives (Japan EP)'
p1543
sa(dp1544
g6
g7
sg8
S'Liquid Lives Single'
p1545
sa(dp1546
g6
g7
sg8
S'M.A.D Promo CD'
p1547
sa(dp1548
g6
g7
sg8
S'M.A.D. EP'
p1549
sa(dp1550
g6
g7
sg8
S'MIXTAPE'
p1551
sa(dp1552
g6
g7
sg8
S'Music For An Accelerated Culture'
p1553
sa(dp1554
g6
g7
sg8
S'Not Here To Please You'
p1555
sasg10
S'Hadouken!'
p1556
sa(dp1557
g3
(lp1558
(dp1559
g6
g7
sg8
S'Dark Eyes'
p1560
sasg10
S'Half Moon Run'
p1561
sa(dp1562
g3
(lp1563
(dp1564
g6
g7
sg8
S'Threshold'
p1565
sasg10
S'Hammerfall'
p1566
sa(dp1567
g3
(lp1568
(dp1569
g6
g7
sg8
S"One Off's Remixes And B Sides (CD1)"
p1570
sasg10
S'Handpolished'
p1571
sa(dp1572
g3
(lp1573
(dp1574
g6
g7
sg8
S'Childbride'
p1575
sasg10
S'Hannah Cohen'
p1576
sa(dp1577
g3
(lp1578
(dp1579
g6
g7
sg8
S'Crimson Tide'
p1580
sasg10
S'Hans Zimmer'
p1581
sa(dp1582
g3
(lp1583
(dp1584
g6
g7
sg8
S'1st'
p1585
sa(dp1586
g6
g7
sg8
S'In Search of Space'
p1587
sasg10
S'Hawkwind'
p1588
sa(dp1589
g3
(lp1590
(dp1591
g6
g7
sg8
S'Better Than Raw'
p1592
sa(dp1593
g6
g7
sg8
S'Chameleon'
p1594
sa(dp1595
g6
g7
sg8
S'Gambling With the Devil'
p1596
sa(dp1597
g6
g7
sg8
S'Keeper of the Seven Keys: the Legacy'
p1598
sa(dp1599
g6
g7
sg8
S'Master of the Rings'
p1600
sa(dp1601
g6
g7
sg8
S'Pink Bubbles Go Ape'
p1602
sa(dp1603
g6
g7
sg8
S"Rabbit Don't Come Easy"
p1604
sa(dp1605
g6
g7
sg8
S'The Best the Rest & The Rare'
p1606
sa(dp1607
g6
g7
sg8
S'The Dark Ride'
p1608
sa(dp1609
g6
g7
sg8
S'The Time of the Oath'
p1610
sa(dp1611
g6
g7
sg8
S'Walls of Jericho'
p1612
sasg10
S'Helloween'
p1613
sa(dp1614
g3
(lp1615
(dp1616
g6
g7
sg8
S'Maiden Voyage'
p1617
sa(dp1618
g6
g7
sg8
S'River: the Joni Letters'
p1619
sasg10
S'Herbie Hancock'
p1620
sa(dp1621
g3
(lp1622
(dp1623
g6
g7
sg8
S'The Lord of the Rings: the Fellowship of the Ring (The Complete Recordings) [1]'
p1624
sa(dp1625
g6
g7
sg8
S'The Lord of the Rings: the Fellowship of the Ring (The Complete Recordings) [2]'
p1626
sa(dp1627
g6
g7
sg8
S'The Lord of the Rings: the Fellowship of the Ring (The Complete Recordings) [3]'
p1628
sasg10
S'Howard Shore'
p1629
sa(dp1630
g3
(lp1631
(dp1632
g6
g7
sg8
S'Are You Sitting Comfortably?'
p1633
sa(dp1634
g6
g7
sg8
S'Dark Matter'
p1635
sa(dp1636
g6
g7
sg8
S'Ever'
p1637
sa(dp1638
g6
g7
sg8
S"J'ai Pollette D'arnu"
p1639
sa(dp1640
g6
g7
sg8
S'Nomzamo'
p1641
sa(dp1642
g6
g7
sg8
S'Subterranea'
p1643
sa(dp1644
g6
g7
sg8
S'Tales From the Lush Attic'
p1645
sa(dp1646
g6
g7
sg8
S'The Seventh House'
p1647
sa(dp1648
g6
g7
sg8
S'The Wake'
p1649
sasg10
S'IQ'
p1650
sa(dp1651
g3
(lp1652
(dp1653
g6
g7
sg8
S'Alive in Athens'
p1654
sa(dp1655
g6
g7
sg8
S'Burnt Offerings'
p1656
sa(dp1657
g6
g7
sg8
S'Dark Genesis'
p1658
sa(dp1659
g6
g7
sg8
S'Days of Purgatory'
p1660
sa(dp1661
g6
g7
sg8
S'Framing Armageddon: Something Wicked, Part 1'
p1662
sa(dp1663
g6
g7
sg8
S'Horror Show'
p1664
sa(dp1665
g6
g7
sg8
S'Iced Earth'
p1666
sa(dp1667
g6
g7
sg8
S'Night of the Stormrider'
p1668
sa(dp1669
g6
g7
sg8
S'Overture of the Wicked'
p1670
sa(dp1671
g6
g7
sg8
S'The Crucible of Man: Something Wicked, Part 2'
p1672
sa(dp1673
g6
g7
sg8
S'The Dark Saga'
p1674
sa(dp1675
g6
g7
sg8
S'The Glorious Burden'
p1676
sa(dp1677
g6
g7
sg8
S'The Glorious Burden (Disc 2: Gettysburg (1863))'
p1678
sa(dp1679
g6
g7
sg8
S'The Melancholy E.P.'
p1680
sasg10
S'Iced Earth'
p1681
sa(dp1682
g3
(lp1683
(dp1684
g6
g7
sg8
S'Preliminaries'
p1685
sasg10
S'Iggy Pop'
p1686
sa(dp1687
g3
(lp1688
(dp1689
g6
g7
sg8
S'A Sense of Purpose'
p1690
sa(dp1691
g6
g7
sg8
S'Clayman'
p1692
sa(dp1693
g6
g7
sg8
S'Colony'
p1694
sa(dp1695
g6
g7
sg8
S'Come Clarity'
p1696
sa(dp1697
g6
g7
sg8
S'Lunar Strain'
p1698
sa(dp1699
g6
g7
sg8
S'Reroute to Remain: Fourteen Songs of Conscious Insanity'
p1700
sa(dp1701
g6
g7
sg8
S'Soundtrack to Your Escape'
p1702
sa(dp1703
g6
g7
sg8
S'The Jester Race / Black-Ash Inheritance'
p1704
sa(dp1705
g6
g7
sg8
S'Whoracle'
p1706
sasg10
S'In Flames'
p1707
sa(dp1708
g3
(lp1709
(dp1710
g6
g7
sg8
S'A Crow Left of the Murder...'
p1711
sa(dp1712
g6
g7
sg8
S'Alive at Red Rocks (Bonus Disc)'
p1713
sa(dp1714
g6
g7
sg8
S'Enjoy Incubus'
p1715
sa(dp1716
g6
g7
sg8
S'Fungus Amongus'
p1717
sa(dp1718
g6
g7
sg8
S'Light Grenades'
p1719
sa(dp1720
g6
g7
sg8
S'Look Alive (Bonus Disc)'
p1721
sa(dp1722
g6
g7
sg8
S'MTV Unplugged'
p1723
sa(dp1724
g6
g7
sg8
S'Make Yourself'
p1725
sa(dp1726
g6
g7
sg8
S'Morning View'
p1727
sa(dp1728
g6
g7
sg8
S'S.C.I.E.N.C.E.'
p1729
sa(dp1730
g6
g7
sg8
S'When Incubus Attacks, Volume 1'
p1731
sa(dp1732
g6
g7
sg8
S'When Incubus Attacks, Volume 2'
p1733
sasg10
S'Incubus'
p1734
sa(dp1735
g3
(lp1736
(dp1737
g6
g7
sg8
S'B.P.Empire'
p1738
sa(dp1739
g6
g7
sg8
S'Classical Mushroom'
p1740
sa(dp1741
g6
g7
sg8
S'Converting Vegetarians'
p1742
sa(dp1743
g6
g7
sg8
S'IM the Supervisor'
p1744
sa(dp1745
g6
g7
sg8
S'Legend of the Black Shawarma'
p1746
sa(dp1747
g6
g7
sg8
S'The Gathering'
p1748
sa(dp1749
g6
g7
sg8
S'Vicious Delicious'
p1750
sasg10
S'Infected Mushroom'
p1751
sa(dp1752
g3
(lp1753
(dp1754
g6
g7
sg8
S'Legend of the Black Shawarma'
p1755
sasg10
S'Infected Mushroom Feat. Jonathan Davis'
p1756
sa(dp1757
g3
(lp1758
(dp1759
g6
g7
sg8
S'Legend of the Black Shawarma'
p1760
sasg10
S'Infected Mushroom Feat. Perry Farrell'
p1761
sa(dp1762
g3
(lp1763
(dp1764
g6
g7
sg8
S'24 Unreleased Studio Works'
p1765
sa(dp1766
g6
g7
sg8
S'A Real Live Dead One'
p1767
sa(dp1768
g6
g7
sg8
S'Brave New World'
p1769
sa(dp1770
g6
g7
sg8
S'Dance of Death'
p1771
sa(dp1772
g6
g7
sg8
S'Fear of the Dark'
p1773
sa(dp1774
g6
g7
sg8
S'Iron Maiden'
p1775
sa(dp1776
g6
g7
sg8
S'Iron Maiden No Prayer for the Dying'
p1777
sa(dp1778
g6
g7
sg8
S'Iron Maiden a Real LIVE One'
p1779
sa(dp1780
g6
g7
sg8
S'Killers'
p1781
sa(dp1782
g6
g7
sg8
S'Live After Death'
p1783
sa(dp1784
g6
g7
sg8
S'No Prayer for the Dying'
p1785
sa(dp1786
g6
g7
sg8
S'Piece of Mind'
p1787
sa(dp1788
g6
g7
sg8
S'Powerslave'
p1789
sa(dp1790
g6
g7
sg8
S'Seventh Son of a Seventh Son'
p1791
sa(dp1792
g6
g7
sg8
S'Somewhere in Time'
p1793
sa(dp1794
g6
g7
sg8
S'The Number of the Beast'
p1795
sa(dp1796
g6
g7
sg8
S'The X Factor'
p1797
sa(dp1798
g6
g7
sg8
S'Virtual XI'
p1799
sasg10
S'Iron Maiden'
p1800
sa(dp1801
g3
(lp1802
(dp1803
g6
g7
sg8
S'In Between Dreams'
p1804
sasg10
S'Jack Johnson'
p1805
sa(dp1806
g3
(lp1807
(dp1808
g6
g7
sg8
S'Punk Jazz - Live in New York City, Vol 1'
p1809
sasg10
S'Jaco Pastorius'
p1810
sa(dp1811
g3
(lp1812
(dp1813
g6
g7
sg8
S'Ample Destruction'
p1814
sa(dp1815
g6
g7
sg8
S'Casting The Stones'
p1816
sa(dp1817
g6
g7
sg8
S'Mechanized Warfare'
p1818
sa(dp1819
g6
g7
sg8
S'Thane To The Throne'
p1820
sasg10
S'Jag Panzer'
p1821
sa(dp1822
g3
(lp1823
(dp1824
g6
g7
sg8
S'A Funk Odyssey'
p1825
sa(dp1826
g6
g7
sg8
S'Dynamite'
p1827
sa(dp1828
g6
g7
sg8
S'Dynamite Instrumentals'
p1829
sa(dp1830
g6
g7
sg8
S'Now Dance 2002, Part 2'
p1831
sa(dp1832
g6
g7
sg8
S'So Fresh: the Hits of Autumn 2002'
p1833
sa(dp1834
g6
g7
sg8
S'Travelling Without Moving'
p1835
sasg10
S'Jamiroquai'
p1836
sa(dp1837
g3
(lp1838
(dp1839
g6
g7
sg8
S'Jazz at the Pawnshop 30th Anniversary'
p1840
sasg10
S'Jazz at the Pawnshop'
p1841
sa(dp1842
g3
(lp1843
(dp1844
g6
g7
sg8
S'Mexico'
p1845
sasg10
S'Jean Leclerc'
p1846
sa(dp1847
g3
(lp1848
(dp1849
g6
g7
sg8
S'1985-2005'
p1850
sasg10
S'Jean Leloup'
p1851
sa(dp1852
g3
(lp1853
(dp1854
g6
g7
sg8
S'Cosmic Messenger'
p1855
sasg10
S'Jean Luc Ponty'
p1856
sa(dp1857
g3
(lp1858
(dp1859
g6
g7
sg8
S'Catch the Lightning'
p1860
sa(dp1861
g6
g7
sg8
S"The Late 60's With Rod Stewart"
p1862
sa(dp1863
g6
g7
sg8
S'Truth'
p1864
sasg10
S'Jeff Beck'
p1865
sa(dp1866
g3
(lp1867
(dp1868
g6
g7
sg8
S'Truth'
p1869
sasg10
S'Jeff Beck Group'
p1870
sa(dp1871
g3
(lp1872
(dp1873
g6
g7
sg8
S"What Do You Do If You Don't"
p1874
sasg10
S'Jesse Rose'
p1875
sa(dp1876
g3
(lp1877
(dp1878
g6
g7
sg8
S'Aqualung'
p1879
sa(dp1880
g6
g7
sg8
S'Crest of a Knave [2005 Remaster]'
p1881
sa(dp1882
g6
g7
sg8
S'Living in the Past'
p1883
sa(dp1884
g6
g7
sg8
S'War Child'
p1885
sasg10
S'Jethro Tull'
p1886
sa(dp1887
g3
(lp1888
(dp1889
g6
g7
sg8
S'Crystal Planet'
p1890
sa(dp1891
g6
g7
sg8
S'Flying in a Blue Dream'
p1892
sa(dp1893
g6
g7
sg8
S'Is There Love in Space?'
p1894
sa(dp1895
g6
g7
sg8
S'Joe Satriani'
p1896
sa(dp1897
g6
g7
sg8
S'Prof. Satchafunkilus & Musterion of Rock'
p1898
sa(dp1899
g6
g7
sg8
S'Super Colossal'
p1900
sa(dp1901
g6
g7
sg8
S'Surfing With the Alien (Remastered)'
p1902
sa(dp1903
g6
g7
sg8
S'The Extremist'
p1904
sasg10
S'Joe Satriani'
p1905
sa(dp1906
g3
(lp1907
(dp1908
g6
g7
sg8
S'Baroque'
p1909
sa(dp1910
g6
g7
sg8
S'Classic FM: Smooth Classics: the Ultimate Collection (Disc 1)'
p1911
sasg10
S'Johann Pachelbel'
p1912
sa(dp1913
g3
(lp1914
(dp1915
g6
g7
sg8
S'Meisterwerke - Cd2'
p1916
sa(dp1917
g6
g7
sg8
S'Meisterwerke - Cd3'
p1918
sa(dp1919
g6
g7
sg8
S'Meisterwerke - Cd4'
p1920
sa(dp1921
g6
g7
sg8
S'Meisterwerke - Cd5'
p1922
sa(dp1923
g6
g7
sg8
S'The Instruments of Classical Music'
p1924
sasg10
S'Johann Sebastian Bach'
p1925
sa(dp1926
g3
(lp1927
(dp1928
g6
g7
sg8
S'Blue Train'
p1929
sa(dp1930
g6
g7
sg8
S'Giant Steps'
p1931
sasg10
S'John Coltrane'
p1932
sa(dp1933
g3
(lp1934
(dp1935
g6
g7
sg8
S'Jealous'
p1936
sasg10
S'John Lee Hooker'
p1937
sa(dp1938
g3
(lp1939
(dp1940
g6
g7
sg8
S'Thieves and Poets'
p1941
sa(dp1942
g6
g7
sg8
S'This Is Jazz 17'
p1943
sasg10
S'John McLaughlin'
p1944
sa(dp1945
g3
(lp1946
(dp1947
g6
g7
sg8
S'Suspended Animation'
p1948
sasg10
S'John Petrucci'
p1949
sa(dp1950
g3
(lp1951
(dp1952
g6
g7
sg8
S'An Evening With John Petrucci & Jordan Rudess'
p1953
sasg10
S'John Petrucci and Jordan Rudess'
p1954
sa(dp1955
g3
(lp1956
(dp1957
g6
g7
sg8
S'Bitter Tears'
p1958
sasg10
S'Johnny Cash'
p1959
sa(dp1960
g3
(lp1961
(dp1962
g6
g7
sg8
S'Big City Secrets'
p1963
sa(dp1964
g6
g7
sg8
S"Come To Where I'm From"
p1965
sa(dp1966
g6
g7
sg8
S'Junkyard Hearts I'
p1967
sa(dp1968
g6
g7
sg8
S'Junkyard Hearts II'
p1969
sa(dp1970
g6
g7
sg8
S'Junkyard Hearts III'
p1971
sa(dp1972
g6
g7
sg8
S'Junkyard Hearts IV'
p1973
sa(dp1974
g6
g7
sg8
S'Nuclear Daydream'
p1975
sa(dp1976
g6
g7
sg8
S'Our Shadows Will Remain'
p1977
sa(dp1978
g6
g7
sg8
S"Redemption's Son"
p1979
sa(dp1980
g6
g7
sg8
S'Vacancy'
p1981
sasg10
S'Joseph Arthur'
p1982
sa(dp1983
g3
(lp1984
(dp1985
g6
g7
sg8
S'Greatest Hits'
p1986
sasg10
S'Journey'
p1987
sa(dp1988
g3
(lp1989
(dp1990
g6
g7
sg8
S'British Steel'
p1991
sa(dp1992
g6
g7
sg8
S'Nostradamus (Cd1)'
p1993
sa(dp1994
g6
g7
sg8
S'Nostradamus (Cd2)'
p1995
sa(dp1996
g6
g7
sg8
S'Priest...Live!'
p1997
sasg10
S'Judas Priest'
p1998
sa(dp1999
g3
(lp2000
(dp2001
g6
g7
sg8
S'Mr Scruff Presents Keep It Solid Steel'
p2002
sasg10
S'Just Ice'
p2003
sa(dp2004
g3
(lp2005
(dp2006
g6
g7
sg8
S'Tropidelico'
p2007
sasg10
S'Kabir/The Quantic Soul Orchestra'
p2008
sa(dp2009
g3
(lp2010
(dp2011
g6
g7
sg8
S'Eternity'
p2012
sasg10
S'Kamelot'
p2013
sa(dp2014
g3
(lp2015
(dp2016
g6
g7
sg8
S'Dust in the Wind'
p2017
sasg10
S'Kansas'
p2018
sa(dp2019
g3
(lp2020
(dp2021
g6
g7
sg8
S'Les Chemins de Verre'
p2022
sasg10
S'Karkwa'
p2023
sa(dp2024
g3
(lp2025
(dp2026
g6
g7
sg8
S'Kasabian'
p2027
sa(dp2028
g6
g7
sg8
S'West Ryder Pauper Lunatic Asylum'
p2029
sasg10
S'Kasabian'
p2030
sa(dp2031
g3
(lp2032
(dp2033
g6
g7
sg8
S'Prevail'
p2034
sasg10
S'Kataklysm'
p2035
sa(dp2036
g3
(lp2037
(dp2038
g6
g7
sg8
S'Fragments From A Space Cadet'
p2039
sasg10
S'Kenneth Bager'
p2040
sa(dp2041
g3
(lp2042
(dp2043
g6
g7
sg8
S'Spirit If...'
p2044
sasg10
S'Kevin Drew'
p2045
sa(dp2046
g3
(lp2047
(dp2048
g6
g7
sg8
S'Carpal Tunnel Syndrome'
p2049
sasg10
S'Kid Koala'
p2050
sa(dp2051
g3
(lp2052
(dp2053
g6
g7
sg8
S'As Daylight Dies'
p2054
sa(dp2055
g6
g7
sg8
S'Killswitch Engage'
p2056
sasg10
S'Killswitch Engage'
p2057
sa(dp2058
g3
(lp2059
(dp2060
g6
g7
sg8
S'Epitaph Volume 2'
p2061
sa(dp2062
g6
g7
sg8
S'Epitaph Volume 3'
p2063
sa(dp2064
g6
g7
sg8
S'Epitaph Volume 4'
p2065
sa(dp2066
g6
g7
sg8
S'Epitaph Volume One'
p2067
sa(dp2068
g6
g7
sg8
S'In the Court of the Crimson King'
p2069
sasg10
S'King Crimson'
p2070
sa(dp2071
g3
(lp2072
(dp2073
g6
g7
sg8
S'Boat Behind (Promo)'
p2074
sa(dp2075
g6
g7
sg8
S'Declaration of Dependence'
p2076
sa(dp2077
g6
g7
sg8
S'Failure (Cd2)'
p2078
sa(dp2079
g6
g7
sg8
S"I'd Rather Dance With You"
p2080
sa(dp2081
g6
g7
sg8
S'Kings of Convenience'
p2082
sa(dp2083
g6
g7
sg8
S'Playing Live in a Room'
p2084
sa(dp2085
g6
g7
sg8
S'Quiet Is the New Loud'
p2086
sa(dp2087
g6
g7
sg8
S'Riot on an Empty Street'
p2088
sa(dp2089
g6
g7
sg8
S'Toxic Girl'
p2090
sa(dp2091
g6
g7
sg8
S'Versus'
p2092
sasg10
S'Kings of Convenience'
p2093
sa(dp2094
g3
(lp2095
(dp2096
g6
g7
sg8
S'Bodytonic Podcast'
p2097
sa(dp2098
g6
g7
sg8
S'Good Lord EP'
p2099
sa(dp2100
g6
g7
sg8
S"Scratch Marchin' [EP]"
p2101
sasg10
S'Kormac'
p2102
sa(dp2103
g3
(lp2104
(dp2105
g6
g7
sg8
S'Follow the Leader'
p2106
sa(dp2107
g6
g7
sg8
S'Greatest Hits, Volume 1'
p2108
sa(dp2109
g6
g7
sg8
S'Issues'
p2110
sa(dp2111
g6
g7
sg8
S'Korn'
p2112
sa(dp2113
g6
g7
sg8
S'Life Is Peachy'
p2114
sa(dp2115
g6
g7
sg8
S'Live & Rare'
p2116
sa(dp2117
g6
g7
sg8
S'Playlist: the Very Best of Korn'
p2118
sa(dp2119
g6
g7
sg8
S'See You on the Other Side'
p2120
sa(dp2121
g6
g7
sg8
S'Take a Look in the Mirror'
p2122
sa(dp2123
g6
g7
sg8
S'Untouchables'
p2124
sasg10
S'Korn'
p2125
sa(dp2126
g3
(lp2127
(dp2128
g6
g7
sg8
S'Autobahn'
p2129
sa(dp2130
g6
g7
sg8
S'Computerwelt'
p2131
sa(dp2132
g6
g7
sg8
S'Die Mensch-Maschine'
p2133
sa(dp2134
g6
g7
sg8
S'Techno Pop'
p2135
sa(dp2136
g6
g7
sg8
S'The Mix'
p2137
sa(dp2138
g6
g7
sg8
S'Tour de France'
p2139
sa(dp2140
g6
g7
sg8
S'Trans Europa Express'
p2141
sasg10
S'Kraftwerk'
p2142
sa(dp2143
g3
(lp2144
(dp2145
g6
g7
sg8
S'Kronos Quartet Released'
p2146
sa(dp2147
g6
g7
sg8
S'Pieces of Africa'
p2148
sa(dp2149
g6
g7
sg8
S'Released'
p2150
sasg10
S'Kronos Quartet'
p2151
sa(dp2152
g3
(lp2153
(dp2154
g6
g7
sg8
S'45:33'
p2155
sa(dp2156
g6
g7
sg8
S'45:33 Remixes'
p2157
sa(dp2158
g6
g7
sg8
S'A Bunch of Stuff'
p2159
sa(dp2160
g6
g7
sg8
S'All My Friends'
p2161
sa(dp2162
g6
g7
sg8
S'Introns'
p2163
sa(dp2164
g6
g7
sg8
S'Sound of Silver'
p2165
sa(dp2166
g6
g7
sg8
S'This Is Happening'
p2167
sasg10
S'LCD Soundsystem'
p2168
sa(dp2169
g3
(lp2170
(dp2171
g6
g7
sg8
S'The Fame'
p2172
sa(dp2173
g6
g7
sg8
S'The Fame Monster'
p2174
sasg10
S'Lady Gaga'
p2175
sa(dp2176
g3
(lp2177
(dp2178
g6
g7
sg8
S'The Fame Monster'
p2179
sasg10
S'Lady Gaga Feat. Beyonc\xc3\xa9'
p2180
sa(dp2181
g3
(lp2182
(dp2183
g6
g7
sg8
S'The Fame'
p2184
sasg10
S"Lady Gaga Feat. Colby O'Donis"
p2185
sa(dp2186
g3
(lp2187
(dp2188
g6
g7
sg8
S'The Fame'
p2189
sasg10
S'Lady Gaga Feat. Space Cowboy and Flo Rida'
p2190
sa(dp2191
g3
(lp2192
(dp2193
g6
g7
sg8
S'Coda'
p2194
sa(dp2195
g6
g7
sg8
S'Houses of the Holy'
p2196
sa(dp2197
g6
g7
sg8
S'In Through the Out Door'
p2198
sa(dp2199
g6
g7
sg8
S'Led Zeppelin'
p2200
sa(dp2201
g6
g7
sg8
S'Led Zeppelin II'
p2202
sa(dp2203
g6
g7
sg8
S'Led Zeppelin III'
p2204
sa(dp2205
g6
g7
sg8
S'Led Zeppelin IV'
p2206
sa(dp2207
g6
g7
sg8
S'Physical Graffiti'
p2208
sa(dp2209
g6
g7
sg8
S'Presence'
p2210
sasg10
S'Led Zeppelin'
p2211
sa(dp2212
g3
(lp2213
(dp2214
g6
g7
sg8
S'Are You Gonna Go My Way'
p2215
sa(dp2216
g6
g7
sg8
S'It Is Time for a Love Revolution'
p2217
sa(dp2218
g6
g7
sg8
S'Let Love Rule'
p2219
sa(dp2220
g6
g7
sg8
S'Mama Said'
p2221
sasg10
S'Lenny Kravitz'
p2222
sa(dp2223
g3
(lp2224
(dp2225
g6
g7
sg8
S"I'm Your Man"
p2226
sa(dp2227
g6
g7
sg8
S'Recent Songs'
p2228
sa(dp2229
g6
g7
sg8
S'Songs From a Room'
p2230
sa(dp2231
g6
g7
sg8
S'Songs of Leonard Cohen'
p2232
sa(dp2233
g6
g7
sg8
S'The Future'
p2234
sa(dp2235
g6
g7
sg8
S'Various Positions'
p2236
sasg10
S'Leonard Cohen'
p2237
sa(dp2238
g3
(lp2239
(dp2240
g6
g7
sg8
S'Les Colocs'
p2241
sasg10
S'Les Colocs'
p2242
sa(dp2243
g3
(lp2244
(dp2245
g6
g7
sg8
S'Alright, Still'
p2246
sasg10
S'Lilly Allen'
p2247
sa(dp2248
g3
(lp2249
(dp2250
g6
g7
sg8
S'Alright, Still'
p2251
sasg10
S'Lily Allen'
p2252
sa(dp2253
g3
(lp2254
(dp2255
g6
g7
sg8
S'Chocolate Starfish and the Hot Dog Flavored Water'
p2256
sa(dp2257
g6
g7
sg8
S'Significant Other'
p2258
sasg10
S'Limp Bizkit'
p2259
sa(dp2260
g3
(lp2261
(dp2262
g6
g7
sg8
S'Significant Other'
p2263
sasg10
S'Limp Bizkit Feat. Matt Pinfield / Limp Bizkit Feat. Les Claypool'
p2264
sa(dp2265
g3
(lp2266
(dp2267
g6
g7
sg8
S'Significant Other'
p2268
sasg10
S'Limp Bizkit Feat. Method Man'
p2269
sa(dp2270
g3
(lp2271
(dp2272
g6
g7
sg8
S'Moving Closer To The Sofa'
p2273
sasg10
S'Limp Twins'
p2274
sa(dp2275
g3
(lp2276
(dp2277
g6
g7
sg8
S'Hybrid Theory'
p2278
sasg10
S'Linkin Park'
p2279
sa(dp2280
g3
(lp2281
(dp2282
g6
g7
sg8
S'Liquid Tension Experiment'
p2283
sa(dp2284
g6
g7
sg8
S'Liquid Tension Experiment 2'
p2285
sasg10
S'Liquid Tension Experiment'
p2286
sa(dp2287
g3
(lp2288
(dp2289
g6
g7
sg8
S'Lisa Leblanc'
p2290
sasg10
S'Lisa Leblanc'
p2291
sa(dp2292
g3
(lp2293
(dp2294
g6
g7
sg8
S'Mr Scruff Presents Keep It Solid Steel'
p2295
sasg10
S'Little Miss Trinitron'
p2296
sa(dp2297
g3
(lp2298
(dp2299
g6
g7
sg8
S'Dreaming Wide Awake'
p2300
sasg10
S'Lizz Wright'
p2301
sa(dp2302
g3
(lp2303
(dp2304
g6
g7
sg8
S'Us and Them: Symphonic Pink Floyd'
p2305
sasg10
S'London Philharmonic Orchestra'
p2306
sa(dp2307
g3
(lp2308
(dp2309
g6
g7
sg8
S'Mr Scruff Presents Keep It Solid Steel'
p2310
sasg10
S'Lords Of The Underground'
p2311
sa(dp2312
g3
(lp2313
(dp2314
g6
g7
sg8
S"A Midwinter Night's Dream"
p2315
sasg10
S'Loreena McKennitt'
p2316
sa(dp2317
g3
(lp2318
(dp2319
g6
g7
sg8
S'Miracle'
p2320
sasg10
S'Loz Contreras'
p2321
sa(dp2322
g3
(lp2323
(dp2324
g6
g7
sg8
S'Mr Scruff Presents Keep It Solid Steel'
p2325
sasg10
S'Luis Enriquez'
p2326
sa(dp2327
g3
(lp2328
(dp2329
g6
g7
sg8
S'Je dis Aime'
p2330
sa(dp2331
g6
g7
sg8
S'Labo M'
p2332
sa(dp2333
g6
g7
sg8
S'Le Bapteme'
p2334
sa(dp2335
g6
g7
sg8
S'Le Tour De M'
p2336
sa(dp2337
g6
g7
sg8
S'Qui de nous deux'
p2338
sasg10
S'M'
sa(dp2339
g3
(lp2340
(dp2341
g6
g7
sg8
S'Congratulations'
p2342
sa(dp2343
g6
g7
sg8
S'Oracular Spectacular'
p2344
sasg10
S'MGMT'
p2345
sa(dp2346
g3
(lp2347
(dp2348
g6
g7
sg8
S'Mr Scruff Presents Keep It Solid Steel'
p2349
sasg10
S'Madkap'
p2350
sa(dp2351
g3
(lp2352
(dp2353
g6
g7
sg8
S'Paul Oakenfold - Greatest Hits and Remixes'
p2354
sasg10
S'Madonna'
p2355
sa(dp2356
g3
(lp2357
(dp2358
g6
g7
sg8
S"One Off's Remixes And B Sides (CD2)"
p2359
sasg10
S'Maga Bo'
p2360
sa(dp2361
g3
(lp2362
(dp2363
g6
g7
sg8
S'69 Love Songs Vol. 1'
p2364
sa(dp2365
g6
g7
sg8
S'69 Love Songs Vol. 2'
p2366
sa(dp2367
g6
g7
sg8
S'69 Love Songs Vol. 3'
p2368
sasg10
S'Magnetic Fields'
p2369
sa(dp2370
g3
(lp2371
(dp2372
g6
g7
sg8
S'Apocalypse'
p2373
sasg10
S'Mahavishnu Orchestra'
p2374
sa(dp2375
g3
(lp2376
(dp2377
g6
g7
sg8
S"Trompe-L'oeil"
p2378
sasg10
S'Malajube'
p2379
sa(dp2380
g3
(lp2381
(dp2382
g6
g7
sg8
S'Fighting the World {Original Master}'
p2383
sasg10
S'Manowar'
p2384
sa(dp2385
g3
(lp2386
(dp2387
g6
g7
sg8
S'January'
p2388
sa(dp2389
g6
g7
sg8
S'Trio'
p2390
sasg10
S'Marcin Wasilewski Trio'
p2391
sa(dp2392
g3
(lp2393
(dp2394
g6
g7
sg8
S'Anoraknophobia'
p2395
sa(dp2396
g6
g7
sg8
S'Brave'
p2397
sa(dp2398
g6
g7
sg8
S'Misplaced Childhood'
p2399
sa(dp2400
g6
g7
sg8
S"Script for a Jester's Tear"
p2401
sa(dp2402
g6
g7
sg8
S'The Hollow Man (Disc 1)'
p2403
sasg10
S'Marillion'
p2404
sa(dp2405
g3
(lp2406
(dp2407
g6
g7
sg8
S'Antichrist Superstar'
p2408
sa(dp2409
g6
g7
sg8
S'Eat Me, Drink Me'
p2410
sa(dp2411
g6
g7
sg8
S'Holy Wood (In the Shadow of the Valley of Death)'
p2412
sa(dp2413
g6
g7
sg8
S'Mechanical Animals'
p2414
sa(dp2415
g6
g7
sg8
S'The Golden Age of Grotesque'
p2416
sasg10
S'Marilyn Manson'
p2417
sa(dp2418
g3
(lp2419
(dp2420
g6
g7
sg8
S'Amsterdam Showcase 2007'
p2421
sa(dp2422
g6
g7
sg8
S'Wag the Dog'
p2423
sasg10
S'Mark Knopfler'
p2424
sa(dp2425
g3
(lp2426
(dp2427
g6
g7
sg8
S'Mr Scruff Presents Keep It Solid Steel'
p2428
sasg10
S'Mark Rae Vs. Deadbeats'
p2429
sa(dp2430
g3
(lp2431
(dp2432
g6
g7
sg8
S'Martha Wainwright'
p2433
sasg10
S'Martha Wainwright'
p2434
sa(dp2435
g3
(lp2436
(dp2437
g6
g7
sg8
S'100th Window'
p2438
sa(dp2439
g6
g7
sg8
S'Blue Lines'
p2440
sa(dp2441
g6
g7
sg8
S'Heligoland'
p2442
sa(dp2443
g6
g7
sg8
S'Mezzanine'
p2444
sa(dp2445
g6
g7
sg8
S'Paul Oakenfold - Greatest Hits and Remixes'
p2446
sa(dp2447
g6
g7
sg8
S'Protection'
p2448
sasg10
S'Massive Attack'
p2449
sa(dp2450
g3
(lp2451
(dp2452
g6
g7
sg8
S'Dear Love'
p2453
sasg10
S'Matthew Ryan'
p2454
sa(dp2455
g3
(lp2456
(dp2457
g6
g7
sg8
S'Fade into You'
p2458
sa(dp2459
g6
g7
sg8
S'She Hangs Brightly'
p2460
sasg10
S'Mazzy Star'
p2461
sa(dp2462
g3
(lp2463
(dp2464
g6
g7
sg8
S'Countdown to Extinction'
p2465
sa(dp2466
g6
g7
sg8
S'Risk'
p2467
sa(dp2468
g6
g7
sg8
S'Rust in Peace'
p2469
sa(dp2470
g6
g7
sg8
S'So Far, So Good... So What!'
p2471
sa(dp2472
g6
g7
sg8
S'Youthanasia'
p2473
sasg10
S'Megadeth'
p2474
sa(dp2475
g3
(lp2476
(dp2477
g6
g7
sg8
S'Between the Lies'
p2478
sa(dp2479
g6
g7
sg8
S'Memphis May Fire'
p2480
sa(dp2481
g6
g7
sg8
S'Sleepwalking'
p2482
sa(dp2483
g6
g7
sg8
S'The Hollow'
p2484
sasg10
S'Memphis May Fire'
p2485
sa(dp2486
g3
(lp2487
(dp2488
g6
g7
sg8
S'Metal Gear Solid - Original Game Soundtrack'
p2489
sasg10
S'Metal Gear Solid'
p2490
sa(dp2491
g3
(lp2492
(dp2493
g6
g7
sg8
S'...and Justice for All'
p2494
sa(dp2495
g6
g7
sg8
S'Garage Inc. Disc 1'
p2496
sa(dp2497
g6
g7
sg8
S'Garage Inc. Disc 2'
p2498
sa(dp2499
g6
g7
sg8
S"Kill 'em All"
p2500
sa(dp2501
g6
g7
sg8
S'Load'
p2502
sa(dp2503
g6
g7
sg8
S'Master of Puppets'
p2504
sa(dp2505
g6
g7
sg8
S'Metallica'
p2506
sa(dp2507
g6
g7
sg8
S'Reload'
p2508
sa(dp2509
g6
g7
sg8
S'Ride the Lightning'
p2510
sa(dp2511
g6
g7
sg8
S'S & M [Disc 1]'
p2512
sa(dp2513
g6
g7
sg8
S'S & M [Disc 2]'
p2514
sa(dp2515
g6
g7
sg8
S'St. Anger'
p2516
sasg10
S'Metallica'
p2517
sa(dp2518
g3
(lp2519
(dp2520
g6
g7
sg8
S'Fantasies'
p2521
sa(dp2522
g6
g7
sg8
S'Grow Up and Blow Away'
p2523
sa(dp2524
g6
g7
sg8
S'Live It Out'
p2525
sasg10
S'Metric'
p2526
sa(dp2527
g3
(lp2528
(dp2529
g6
g7
sg8
S"It's Time"
p2530
sasg10
S'Michael Bubl\xc3\xa9'
p2531
sa(dp2532
g3
(lp2533
(dp2534
g6
g7
sg8
S'Mr Scruff Presents Keep It Solid Steel'
p2535
sasg10
S'Microdisiacs'
p2536
sa(dp2537
g3
(lp2538
(dp2539
g6
g7
sg8
S'10th Anniversary of Tubular Bells 1983 CD1'
p2540
sa(dp2541
g6
g7
sg8
S'10th Anniversary of Tubular Bells 1983 CD2'
p2542
sa(dp2543
g6
g7
sg8
S'Live in Katowice 1999'
p2544
sa(dp2545
g6
g7
sg8
S'Platinum Collection (Cd 2)'
p2546
sa(dp2547
g6
g7
sg8
S'The Platinum Collection (Cd1)'
p2548
sa(dp2549
g6
g7
sg8
S'The Platinum Collection CD3'
p2550
sasg10
S'Mike Oldfield'
p2551
sa(dp2552
g3
(lp2553
(dp2554
g6
g7
sg8
S'Birth of the Cool'
p2555
sa(dp2556
g6
g7
sg8
S'Kind of Blue'
p2557
sa(dp2558
g6
g7
sg8
S'Love Songs'
p2559
sa(dp2560
g6
g7
sg8
S'Porgy and Bess'
p2561
sasg10
S'Miles Davis'
p2562
sa(dp2563
g3
(lp2564
(dp2565
g6
g7
sg8
S'Porgy and Bess'
p2566
sasg10
S'Miles Davis and Gil Evans'
p2567
sa(dp2568
g3
(lp2569
(dp2570
g6
g7
sg8
S'Friterday Night'
p2571
sa(dp2572
g6
g7
sg8
S'Golden Bombay'
p2573
sasg10
S'Misteur Valaire'
p2574
sa(dp2575
g3
(lp2576
(dp2577
g6
g7
sg8
S'18'
p2578
sa(dp2579
g6
g7
sg8
S'Ambient'
p2580
sa(dp2581
g6
g7
sg8
S'Animal Rights'
p2582
sa(dp2583
g6
g7
sg8
S'Early Underground'
p2584
sa(dp2585
g6
g7
sg8
S'Everything Is Wrong'
p2586
sa(dp2587
g6
g7
sg8
S'Feeling So Real Remixes'
p2588
sa(dp2589
g6
g7
sg8
S'Hotel (2cd + Single)'
p2590
sa(dp2591
g6
g7
sg8
S'I Like to Score'
p2592
sa(dp2593
g6
g7
sg8
S'Play'
p2594
sa(dp2595
g6
g7
sg8
S'Play: the B Sides'
p2596
sa(dp2597
g6
g7
sg8
S'Rare-the Collected B Sides 1989-1993'
p2598
sasg10
S'Moby'
p2599
sa(dp2600
g3
(lp2601
(dp2602
g6
g7
sg8
S'Come on Die Young'
p2603
sa(dp2604
g6
g7
sg8
S'Happy Songs for Happy People'
p2605
sa(dp2606
g6
g7
sg8
S'Mr. Beast'
p2607
sa(dp2608
g6
g7
sg8
S'My Father My King'
p2609
sa(dp2610
g6
g7
sg8
S'Young Team [Remastered]'
p2611
sa(dp2612
g6
g7
sg8
S'Young Team [Remastered] Disc2'
p2613
sasg10
S'Mogwai'
p2614
sa(dp2615
g3
(lp2616
(dp2617
g6
g7
sg8
S'Recoloured: the remix Album'
p2618
sasg10
S'Molvaer, Nils Petter'
p2619
sa(dp2620
g3
(lp2621
(dp2622
g6
g7
sg8
S'Formica Blues'
p2623
sa(dp2624
g6
g7
sg8
S'Hymn to the Immortal Wind'
p2625
sa(dp2626
g6
g7
sg8
S'One Step More and You Die'
p2627
sasg10
S'Mono'
p2628
sa(dp2629
g3
(lp2630
(dp2631
g6
g7
sg8
S'2econd Skin'
p2632
sa(dp2633
g6
g7
sg8
S'Darkness and Hope'
p2634
sa(dp2635
g6
g7
sg8
S'Irreligious'
p2636
sa(dp2637
g6
g7
sg8
S'Memorial'
p2638
sa(dp2639
g6
g7
sg8
S'Night Eternal'
p2640
sa(dp2641
g6
g7
sg8
S'Sin / Pecado'
p2642
sa(dp2643
g6
g7
sg8
S'The Antidote'
p2644
sa(dp2645
g6
g7
sg8
S'The Butterfly Effect'
p2646
sa(dp2647
g6
g7
sg8
S'Under Satan\xc3\xa6'
p2648
sa(dp2649
g6
g7
sg8
S'Wolfheart'
p2650
sasg10
S'Moonspell'
p2651
sa(dp2652
g3
(lp2653
(dp2654
g6
g7
sg8
S'Big Calm'
p2655
sa(dp2656
g6
g7
sg8
S'Blood Like Lemonade'
p2657
sa(dp2658
g6
g7
sg8
S'Charango (Instrumentals)'
p2659
sa(dp2660
g6
g7
sg8
S'Dive Deep'
p2661
sa(dp2662
g6
g7
sg8
S'Fragments of Freedom'
p2663
sa(dp2664
g6
g7
sg8
S'Who Can You Trust?'
p2665
sasg10
S'Morcheeba'
p2666
sa(dp2667
g3
(lp2668
(dp2669
g6
g7
sg8
S'Anden Som Gjorde Oppror'
p2670
sa(dp2671
g6
g7
sg8
S'Crypt of the Wizard'
p2672
sa(dp2673
g6
g7
sg8
S'Decadent and Desperate'
p2674
sa(dp2675
g6
g7
sg8
S'Fata Morgana'
p2676
sa(dp2677
g6
g7
sg8
S'Green Eyed Demon'
p2678
sa(dp2679
g6
g7
sg8
S'Keiser Av En Dimensjon Ukjent'
p2680
sa(dp2681
g6
g7
sg8
S'Mortiis - the Smell of Rain'
p2682
sa(dp2683
g6
g7
sg8
S'Selvmord'
p2684
sa(dp2685
g6
g7
sg8
S'Soul in a Hole'
p2686
sa(dp2687
g6
g7
sg8
S'The Dark River'
p2688
sa(dp2689
g6
g7
sg8
S"The Devil's Songs"
p2690
sa(dp2691
g6
g7
sg8
S'The Grudge'
p2692
sa(dp2693
g6
g7
sg8
S'The Grudge Single'
p2694
sa(dp2695
g6
g7
sg8
S'The Stargate'
p2696
sa(dp2697
g6
g7
sg8
S'\xc3\x85nden Som Gjorde Oppr\xc3\xb8r'
p2698
sasg10
S'Mortiis'
p2699
sa(dp2700
g3
(lp2701
(dp2702
g6
g7
sg8
S'Overkill'
p2703
sasg10
S'Mot\xc3\xb6rhead'
p2704
sa(dp2705
g3
(lp2706
(dp2707
g6
g7
sg8
S'Mr Scruff Presents Keep It Solid Steel'
p2708
sasg10
S'Mr Scruff'
p2709
sa(dp2710
g3
(lp2711
(dp2712
g6
g7
sg8
S'California'
p2713
sa(dp2714
g6
g7
sg8
S'Disco Volante'
p2715
sa(dp2716
g6
g7
sg8
S'Mr. Bungle'
p2717
sasg10
S'Mr. Bungle'
p2718
sa(dp2719
g3
(lp2720
(dp2721
g6
g7
sg8
S'Keep it Unreal'
p2722
sa(dp2723
g6
g7
sg8
S'Ninja Tuna'
p2724
sa(dp2725
g6
g7
sg8
S'Trouser Jazz'
p2726
sasg10
S'Mr. Scruff'
p2727
sa(dp2728
g3
(lp2729
(dp2730
g6
g7
sg8
S'Babel'
p2731
sasg10
S'Mumford & Sons'
p2732
sa(dp2733
g3
(lp2734
(dp2735
g6
g7
sg8
S'Sigh No More'
p2736
sasg10
S'Mumford and Sons'
p2737
sa(dp2738
g3
(lp2739
(dp2740
g6
g7
sg8
S'Mr Scruff Presents Keep It Solid Steel'
p2741
sasg10
S"Mungo's Hifi Feat. Brother Culture"
p2742
sa(dp2743
g3
(lp2744
(dp2745
g6
g7
sg8
S'Absolution'
p2746
sa(dp2747
g6
g7
sg8
S'Black Holes and Revelations'
p2748
sa(dp2749
g6
g7
sg8
S'H.A.A.R.P.'
p2750
sa(dp2751
g6
g7
sg8
S'Hullabaloo'
p2752
sa(dp2753
g6
g7
sg8
S'Origin of Symmetry'
p2754
sa(dp2755
g6
g7
sg8
S'Showbiz'
p2756
sa(dp2757
g6
g7
sg8
S'The Resistance'
p2758
sasg10
S'Muse'
p2759
sa(dp2760
g3
(lp2761
(dp2762
g6
g7
sg8
S'For Lies I Sire'
p2763
sasg10
S'My Dying Bride'
p2764
sa(dp2765
g3
(lp2766
(dp2767
g6
g7
sg8
S'All the Right Reasons'
p2768
sa(dp2769
g6
g7
sg8
S'Curb'
p2770
sa(dp2771
g6
g7
sg8
S'Dark Horse'
p2772
sa(dp2773
g6
g7
sg8
S'Silver Side Up'
p2774
sa(dp2775
g6
g7
sg8
S'The Long Road'
p2776
sa(dp2777
g6
g7
sg8
S'The State'
p2778
sasg10
S'Nickelback'
p2779
sa(dp2780
g3
(lp2781
(dp2782
g6
g7
sg8
S'Swing-Swing'
p2783
sasg10
S'Nicolas Repac'
p2784
sa(dp2785
g3
(lp2786
(dp2787
g6
g7
sg8
S'Century Child'
p2788
sa(dp2789
g6
g7
sg8
S'Oceanborn'
p2790
sa(dp2791
g6
g7
sg8
S'Wishmaster'
p2792
sasg10
S'Nightwish'
p2793
sa(dp2794
g3
(lp2795
(dp2796
g6
g7
sg8
S'Er'
p2797
sa(dp2798
g6
g7
sg8
S'Hamada'
p2799
sa(dp2800
g6
g7
sg8
S'Khmer'
p2801
sa(dp2802
g6
g7
sg8
S'NP3'
p2803
sa(dp2804
g6
g7
sg8
S'Re-Vision'
p2805
sa(dp2806
g6
g7
sg8
S'Recoloured: the remix Album'
p2807
sa(dp2808
g6
g7
sg8
S'Solid Ether'
p2809
sasg10
S'Nils Petter Molv\xc3\xa6r'
p2810
sa(dp2811
g3
(lp2812
(dp2813
g6
g7
sg8
S'The Essential Nina Simone'
p2814
sasg10
S'Nina Simone'
p2815
sa(dp2816
g3
(lp2817
(dp2818
g6
g7
sg8
S'And All That Could Have Been'
p2819
sa(dp2820
g6
g7
sg8
S'Beside You In Time'
p2821
sa(dp2822
g6
g7
sg8
S'Broken'
p2823
sa(dp2824
g6
g7
sg8
S'Further Down the Spiral'
p2825
sa(dp2826
g6
g7
sg8
S'Ghosts I-IV'
p2827
sa(dp2828
g6
g7
sg8
S'Only'
p2829
sa(dp2830
g6
g7
sg8
S'Pretty Hate Machine'
p2831
sa(dp2832
g6
g7
sg8
S'Sin'
p2833
sa(dp2834
g6
g7
sg8
S'Survivalism'
p2835
sa(dp2836
g6
g7
sg8
S'The Downward Spiral'
p2837
sa(dp2838
g6
g7
sg8
S'The Fragile [Left]'
p2839
sa(dp2840
g6
g7
sg8
S'The Fragile [Right]'
p2841
sa(dp2842
g6
g7
sg8
S'The Slip'
p2843
sa(dp2844
g6
g7
sg8
S'Things Falling Apart'
p2845
sa(dp2846
g6
g7
sg8
S'With Teeth'
p2847
sa(dp2848
g6
g7
sg8
S'Year Zero'
p2849
sa(dp2850
g6
g7
sg8
S'Year Zero Remixed'
p2851
sasg10
S'Nine Inch Nails'
p2852
sa(dp2853
g3
(lp2854
(dp2855
g6
g7
sg8
S'Return of Saturn'
p2856
sa(dp2857
g6
g7
sg8
S'Rock Steady'
p2858
sa(dp2859
g6
g7
sg8
S'Tragic Kingdom'
p2860
sasg10
S'No Doubt'
p2861
sa(dp2862
g3
(lp2863
(dp2864
g6
g7
sg8
S"Noel Gallagher's High Flying Birds"
p2865
sasg10
S"Noel Gallagher's High Flying Birds"
p2866
sa(dp2867
g3
(lp2868
(dp2869
g6
g7
sg8
S'Come Away With Me'
p2870
sa(dp2871
g6
g7
sg8
S'Feels Like Home'
p2872
sa(dp2873
g6
g7
sg8
S'Flac'
p2874
sa(dp2875
g6
g7
sg8
S'The Fall'
p2876
sasg10
S'Norah Jones'
p2877
sa(dp2878
g3
(lp2879
(dp2880
g6
g7
sg8
S'Hellbound'
p2881
sa(dp2882
g6
g7
sg8
S'Pathway'
p2883
sa(dp2884
g6
g7
sg8
S'The Prophet of Evil'
p2885
sa(dp2886
g6
g7
sg8
S'The Third Prophecy'
p2887
sa(dp2888
g6
g7
sg8
S'Words of Nostradameus'
p2889
sasg10
S'Nostradameus'
p2890
sa(dp2891
g3
(lp2892
(dp2893
g6
g7
sg8
S"(What's the Story) Morning Glory?"
p2894
sasg10
S'Oasis'
p2895
sa(dp2896
g3
(lp2897
(dp2898
g6
g7
sg8
S'Blackwater Park'
p2899
sa(dp2900
g6
g7
sg8
S'Damnation'
p2901
sa(dp2902
g6
g7
sg8
S'Deliverance'
p2903
sa(dp2904
g6
g7
sg8
S'Ghost Reveries'
p2905
sa(dp2906
g6
g7
sg8
S'Morningrise'
p2907
sa(dp2908
g6
g7
sg8
S'My Arms, Your Hearse'
p2909
sa(dp2910
g6
g7
sg8
S'Orchid'
p2911
sa(dp2912
g6
g7
sg8
S'Still Life'
p2913
sa(dp2914
g6
g7
sg8
S'The Roundhouse Tapes'
p2915
sa(dp2916
g6
g7
sg8
S'Watershed'
p2917
sasg10
S'Opeth'
p2918
sa(dp2919
g3
(lp2920
(dp2921
g6
g7
sg8
S'Adagio \xe2\x80\xa2 Canon'
p2922
sa(dp2923
g6
g7
sg8
S'Baroque'
p2924
sa(dp2925
g6
g7
sg8
S"Critic's Choice: the Basic Baroque (The English Philharmonic Orchestra Feat. Conductor: Simon Addison) (Disc 2)"
p2926
sa(dp2927
g6
g7
sg8
S'Five Concertos for Oboe and Strings'
p2928
sa(dp2929
g6
g7
sg8
S'The Baroque Collection'
p2930
sa(dp2931
g6
g7
sg8
S'The Instruments of Classical Music'
p2932
sa(dp2933
g6
g7
sg8
S'Three Elegies & Music for Strings'
p2934
sasg10
S'Orpheus Chamber Orchestra'
p2935
sa(dp2936
g3
(lp2937
(dp2938
g6
g7
sg8
S'The Essential Oscar Peterson: the Swinger'
p2939
sasg10
S'Oscar Peterson'
p2940
sa(dp2941
g3
(lp2942
(dp2943
g6
g7
sg8
S"One Off's Remixes And B Sides (CD2)"
p2944
sasg10
S'Oscar Sulley & The Uhuru Dance Band'
p2945
sa(dp2946
g3
(lp2947
(dp2948
g6
g7
sg8
S'A Decade'
p2949
sasg10
S'Our Lady Peace'
p2950
sa(dp2951
g3
(lp2952
(dp2953
g6
g7
sg8
S'Think Twice'
p2954
sasg10
S'Palov & Mishkin'
p2955
sa(dp2956
g3
(lp2957
(dp2958
g6
g7
sg8
S'Cowboys From Hell'
p2959
sa(dp2960
g6
g7
sg8
S'Far Beyond Driven'
p2961
sa(dp2962
g6
g7
sg8
S'I Am the Night'
p2963
sa(dp2964
g6
g7
sg8
S'Metal Magic'
p2965
sa(dp2966
g6
g7
sg8
S'Power Metal'
p2967
sa(dp2968
g6
g7
sg8
S'Projects in the Jungle / I Am the Night'
p2969
sa(dp2970
g6
g7
sg8
S'Reinventing the Steel'
p2971
sa(dp2972
g6
g7
sg8
S'The Great Southern Trendkill'
p2973
sa(dp2974
g6
g7
sg8
S'Vulgar Display of Power'
p2975
sasg10
S'Pantera'
p2976
sa(dp2977
g3
(lp2978
(dp2979
g6
g7
sg8
S'Mr Scruff Presents Keep It Solid Steel'
p2980
sasg10
S'Papa Austin With The Great Peso'
p2981
sa(dp2982
g3
(lp2983
(dp2984
g6
g7
sg8
S'Flatout 2'
p2985
sa(dp2986
g6
g7
sg8
S'Getting Away With Murder'
p2987
sa(dp2988
g6
g7
sg8
S'To Be Loved: the Best of Papa Roach'
p2989
sasg10
S'Papa Roach'
p2990
sa(dp2991
g3
(lp2992
(dp2993
g6
g7
sg8
S'Icon'
p2994
sasg10
S'Paradise Lost'
p2995
sa(dp2996
g3
(lp2997
(dp2998
g6
g7
sg8
S'A Night In Torino'
p2999
sa(dp3000
g6
g7
sg8
S'Kisskiss EP'
p3001
sa(dp3002
g6
g7
sg8
S'Libella Swing'
p3003
sa(dp3004
g6
g7
sg8
S'Seven And Storm'
p3005
sa(dp3006
g6
g7
sg8
S'Shine'
p3007
sa(dp3008
g6
g7
sg8
S'Spygame'
p3009
sa(dp3010
g6
g7
sg8
S'Sugar'
p3011
sasg10
S'Parov Stelar'
p3012
sa(dp3013
g3
(lp3014
(dp3015
g6
g7
sg8
S'Live at Roxy Club'
p3016
sasg10
S'Parov Stelar and Band'
p3017
sa(dp3018
g3
(lp3019
(dp3020
g6
g7
sg8
S'Orchestrion'
p3021
sa(dp3022
g6
g7
sg8
S'The Road to You'
p3023
sa(dp3024
g6
g7
sg8
S'The Way Up'
p3025
sasg10
S'Pat Metheny'
p3026
sa(dp3027
g3
(lp3028
(dp3029
g6
g7
sg8
S'Adventures In Your Own Backyard'
p3030
sa(dp3031
g6
g7
sg8
S'Close to Paradise'
p3032
sa(dp3033
g6
g7
sg8
S'Just Another Ordinary Day'
p3034
sa(dp3035
g6
g7
sg8
S'Waterproof9'
p3036
sa(dp3037
g6
g7
sg8
S'Wooden Arms'
p3038
sasg10
S'Patrick Watson'
p3039
sa(dp3040
g3
(lp3041
(dp3042
g6
g7
sg8
S'Paul Oakenfold - Greatest Hits and Remixes'
p3043
sa(dp3044
g6
g7
sg8
S'Pieces of Africa'
p3045
sasg10
S'Paul Oakenfold'
p3046
sa(dp3047
g3
(lp3048
(dp3049
g6
g7
sg8
S'Introducing New Details'
p3050
sasg10
S'Pawa Up First'
p3051
sa(dp3052
g3
(lp3053
(dp3054
g6
g7
sg8
S'Benaroya Hall (Oct.22 2003)'
p3055
sa(dp3056
g6
g7
sg8
S'Binaural'
p3057
sa(dp3058
g6
g7
sg8
S'Live on Two Legs'
p3059
sa(dp3060
g6
g7
sg8
S'Lost Dogs'
p3061
sa(dp3062
g6
g7
sg8
S'No Code'
p3063
sa(dp3064
g6
g7
sg8
S'Pearl Jam'
p3065
sa(dp3066
g6
g7
sg8
S'Rearviewmirror (Greatest Hits 1991-2003)'
p3067
sa(dp3068
g6
g7
sg8
S'Riot Act'
p3069
sa(dp3070
g6
g7
sg8
S'Ten'
p3071
sa(dp3072
g6
g7
sg8
S'Vitalogy'
p3073
sa(dp3074
g6
g7
sg8
S'Vs'
p3075
sa(dp3076
g6
g7
sg8
S'Yield'
p3077
sasg10
S'Pearl Jam'
p3078
sa(dp3079
g3
(lp3080
(dp3081
g6
g7
sg8
S'3 Knocks - Disk 2 (Exploitation)'
p3082
sa(dp3083
g6
g7
sg8
S'Immersion'
p3084
sa(dp3085
g6
g7
sg8
S'In Silico'
p3086
sa(dp3087
g6
g7
sg8
S'Three Knocks (Disc 1) - Well Being'
p3088
sasg10
S'Pendulum'
p3089
sa(dp3090
g3
(lp3091
(dp3092
g6
g7
sg8
S'Peter Gabriel'
p3093
sa(dp3094
g6
g7
sg8
S'Scratch My Back'
p3095
sa(dp3096
g6
g7
sg8
S'Us'
p3097
sasg10
S'Peter Gabriel'
p3098
sa(dp3099
g3
(lp3100
(dp3101
g6
g7
sg8
S'Mr Scruff Presents Keep It Solid Steel'
p3102
sasg10
S'Pharoah Sanders'
p3103
sa(dp3104
g3
(lp3105
(dp3106
g6
g7
sg8
S'313 (Mastered)'
p3107
sa(dp3108
g6
g7
sg8
S'Chupacabras'
p3109
sa(dp3110
g6
g7
sg8
S'Doomsday Afternoon'
p3111
sa(dp3112
g6
g7
sg8
S'Fiendish'
p3113
sa(dp3114
g6
g7
sg8
S'Ghost Story'
p3115
sa(dp3116
g6
g7
sg8
S'Number 7'
p3117
sa(dp3118
g6
g7
sg8
S'Snowtorch'
p3119
sa(dp3120
g6
g7
sg8
S'The Great Leap'
p3121
sasg10
S'Phideaux'
p3122
sa(dp3123
g3
(lp3124
(dp3125
g6
g7
sg8
S'...Hits'
p3126
sa(dp3127
g6
g7
sg8
S'\xe2\x80\xa6Hits'
p3128
sasg10
S'Phil Collins'
p3129
sa(dp3130
g3
(lp3131
(dp3132
g6
g7
sg8
S'A Momentary Lapse of Reason'
p3133
sa(dp3134
g6
g7
sg8
S'A Saucerful of Secrets'
p3135
sa(dp3136
g6
g7
sg8
S'Animals'
p3137
sa(dp3138
g6
g7
sg8
S'Atom Heart Mother'
p3139
sa(dp3140
g6
g7
sg8
S'Meddle'
p3141
sa(dp3142
g6
g7
sg8
S'More'
p3143
sa(dp3144
g6
g7
sg8
S'Obscured by Clouds'
p3145
sa(dp3146
g6
g7
sg8
S'The Dark Side of the Moon'
p3147
sa(dp3148
g6
g7
sg8
S'The Division Bell'
p3149
sa(dp3150
g6
g7
sg8
S'The Final Cut'
p3151
sa(dp3152
g6
g7
sg8
S'The Piper at the Gates of Dawn'
p3153
sa(dp3154
g6
g7
sg8
S'The Wall'
p3155
sa(dp3156
g6
g7
sg8
S'Wish You Were Here'
p3157
sasg10
S'Pink Floyd'
p3158
sa(dp3159
g3
(lp3160
(dp3161
g6
g7
sg8
S'Not Here To Please You'
p3162
sasg10
S'Plan B'
p3163
sa(dp3164
g3
(lp3165
(dp3166
g6
g7
sg8
S'Raising Sand'
p3167
sasg10
S'Plant, Robert and Alison Krauss'
p3168
sa(dp3169
g3
(lp3170
(dp3171
g6
g7
sg8
S'Coma Divine'
p3172
sa(dp3173
g6
g7
sg8
S'Deadwing'
p3174
sa(dp3175
g6
g7
sg8
S'Fear of a Blank Planet'
p3176
sa(dp3177
g6
g7
sg8
S'In Absentia'
p3178
sa(dp3179
g6
g7
sg8
S'In Absentia (Bonus Disc)'
p3180
sa(dp3181
g6
g7
sg8
S'Insignificance (Remaster)'
p3182
sa(dp3183
g6
g7
sg8
S'Lightbulb Sun'
p3184
sa(dp3185
g6
g7
sg8
S'On the Sunday of Life...'
p3186
sa(dp3187
g6
g7
sg8
S'Signify (Remaster)'
p3188
sa(dp3189
g6
g7
sg8
S'Staircase Infinities'
p3190
sa(dp3191
g6
g7
sg8
S'Stupid Dream'
p3192
sa(dp3193
g6
g7
sg8
S'The Incident [Disc 1]'
p3194
sa(dp3195
g6
g7
sg8
S'The Incident [Disc 2]'
p3196
sa(dp3197
g6
g7
sg8
S'The Sky Moves Sideways (Remaster) CD1'
p3198
sa(dp3199
g6
g7
sg8
S'The Sky Moves Sideways (Remaster) CD2'
p3200
sa(dp3201
g6
g7
sg8
S'Up the Downstair (2004 Version)'
p3202
sasg10
S'Porcupine Tree'
p3203
sa(dp3204
g3
(lp3205
(dp3206
g6
g7
sg8
S'Isla'
p3207
sasg10
S'Portico Quartet'
p3208
sa(dp3209
g3
(lp3210
(dp3211
g6
g7
sg8
S'Dummy'
p3212
sa(dp3213
g6
g7
sg8
S'Portishead'
p3214
sa(dp3215
g6
g7
sg8
S'Third'
p3216
sasg10
S'Portishead'
p3217
sa(dp3218
g3
(lp3219
(dp3220
g6
g7
sg8
S'Mr Scruff Presents Keep It Solid Steel'
p3221
sasg10
S'Prefuse 73'
p3222
sa(dp3223
g3
(lp3224
(dp3225
g6
g7
sg8
S'Photos of Ghosts'
p3226
sa(dp3227
g6
g7
sg8
S'Storia Di Un Minuto'
p3228
sasg10
S'Premiata Forneria Marconi'
p3229
sa(dp3230
g3
(lp3231
(dp3232
g6
g7
sg8
S'A Calculated Use of Sound'
p3233
sa(dp3234
g6
g7
sg8
S'Fortress'
p3235
sa(dp3236
g6
g7
sg8
S'Kezia'
p3237
sasg10
S'Protest the Hero'
p3238
sa(dp3239
g3
(lp3240
(dp3241
g6
g7
sg8
S'It Takes a Nation of Millions to Hold Us Back'
p3242
sasg10
S'Public Enemy'
p3243
sa(dp3244
g3
(lp3245
(dp3246
g6
g7
sg8
S"'C' Is for (Please Insert Sophomoric Genitalia Refrence Here) E.P."
p3247
sa(dp3248
g6
g7
sg8
S'V Is for Vagina'
p3249
sasg10
S'Puscifer'
p3250
sa(dp3251
g3
(lp3252
(dp3253
g6
g7
sg8
S"One Off's Remixes And B Sides (CD1)"
p3254
sa(dp3255
g6
g7
sg8
S"One Off's Remixes And B Sides (CD2)"
p3256
sa(dp3257
g6
g7
sg8
S'Primate Boogaloo (TRU40)'
p3258
sa(dp3259
g6
g7
sg8
S'Sabor 12"'
p3260
sa(dp3261
g6
g7
sg8
S'Search the Heavens(remix 12inch)'
p3262
sa(dp3263
g6
g7
sg8
S'through these eyes'
p3264
sasg10
S'Quantic'
p3265
sa(dp3266
g3
(lp3267
(dp3268
g6
g7
sg8
S"One Off's Remixes And B Sides (CD1)"
p3269
sasg10
S'Quantic & Mr. Scruff'
p3270
sa(dp3271
g3
(lp3272
(dp3273
g6
g7
sg8
S'Stampede'
p3274
sa(dp3275
g6
g7
sg8
S'stampede remix'
p3276
sasg10
S'Quantic Soul Orchestra'
p3277
sa(dp3278
g3
(lp3279
(dp3280
g6
g7
sg8
S'A Day at the Races'
p3281
sa(dp3282
g6
g7
sg8
S'A Kind of Magic'
p3283
sa(dp3284
g6
g7
sg8
S'A Night at the Opera'
p3285
sa(dp3286
g6
g7
sg8
S'At the BBC'
p3287
sa(dp3288
g6
g7
sg8
S'Flash Gordon'
p3289
sa(dp3290
g6
g7
sg8
S'Greatest Hits I'
p3291
sa(dp3292
g6
g7
sg8
S'Hot Space'
p3293
sa(dp3294
g6
g7
sg8
S'Jazz'
p3295
sa(dp3296
g6
g7
sg8
S'Live Killers'
p3297
sa(dp3298
g6
g7
sg8
S'Live Magic'
p3299
sa(dp3300
g6
g7
sg8
S'News of the World'
p3301
sa(dp3302
g6
g7
sg8
S'Queen'
p3303
sa(dp3304
g6
g7
sg8
S'Queen II'
p3305
sa(dp3306
g6
g7
sg8
S'The Game'
p3307
sa(dp3308
g6
g7
sg8
S'The Miracle'
p3309
sa(dp3310
g6
g7
sg8
S'The Works'
p3311
sasg10
S'Queen'
p3312
sa(dp3313
g3
(lp3314
(dp3315
g6
g7
sg8
S'Operation: Mindcrime'
p3316
sasg10
S'Queensr\xc3\xbfche'
p3317
sa(dp3318
g3
(lp3319
(dp3320
g6
g7
sg8
S'1976'
p3321
sa(dp3322
g6
g7
sg8
S'Exotic Talk VLS'
p3323
sa(dp3324
g6
g7
sg8
S"Gettin' Jukie Wid It CD1"
p3325
sa(dp3326
g6
g7
sg8
S"Gettin' Jukie Wid It CD2"
p3327
sa(dp3328
g6
g7
sg8
S"Gettin' Jukie Wid It Vol. 2 CD1"
p3329
sa(dp3330
g6
g7
sg8
S'Getting Jukie Wid It Vol. 2 CD2'
p3331
sa(dp3332
g6
g7
sg8
S"Here's what's left VLS"
p3333
sa(dp3334
g6
g7
sg8
S'June (12 Inch)'
p3335
sa(dp3336
g6
g7
sg8
S'Loose Ends'
p3337
sa(dp3338
g6
g7
sg8
S'RJD2 Is God'
p3339
sa(dp3340
g6
g7
sg8
S'The Horror EP'
p3341
sa(dp3342
g6
g7
sg8
S'The Mashed Up Mixes'
p3343
sa(dp3344
g6
g7
sg8
S'The Silver Album'
p3345
sa(dp3346
g6
g7
sg8
S'The Third Hand'
p3347
sa(dp3348
g6
g7
sg8
S'The Third Hand (Instrumentals)'
p3349
sa(dp3350
g6
g7
sg8
S'Things Go Better Instrumentals'
p3351
sasg10
S'RJD2'
p3352
sa(dp3353
g3
(lp3354
(dp3355
g6
g7
sg8
S'Amnesiac'
p3356
sa(dp3357
g6
g7
sg8
S'In Rainbows'
p3358
sa(dp3359
g6
g7
sg8
S'OK Computer'
p3360
sa(dp3361
g6
g7
sg8
S'Paul Oakenfold - Greatest Hits and Remixes'
p3362
sa(dp3363
g6
g7
sg8
S'The Bends'
p3364
sa(dp3365
g6
g7
sg8
S'The King of Limbs'
p3366
sasg10
S'Radiohead'
p3367
sa(dp3368
g3
(lp3369
(dp3370
g6
g7
sg8
S'Rage Against the Machine'
p3371
sasg10
S'Rage Against the Machine'
p3372
sa(dp3373
g3
(lp3374
(dp3375
g6
g7
sg8
S'Rain Man'
p3376
sasg10
S'Rain Man'
p3377
sa(dp3378
g3
(lp3379
(dp3380
g6
g7
sg8
S'Bent Out of Shape'
p3381
sa(dp3382
g6
g7
sg8
S'Difficult to Cure'
p3383
sa(dp3384
g6
g7
sg8
S'Down to Earth'
p3385
sa(dp3386
g6
g7
sg8
S'Finyl Vinyl'
p3387
sa(dp3388
g6
g7
sg8
S'Live in Germany 1976'
p3389
sa(dp3390
g6
g7
sg8
S"Long Live Rock 'n' Roll"
p3391
sa(dp3392
g6
g7
sg8
S'On Stage'
p3393
sa(dp3394
g6
g7
sg8
S'Rising'
p3395
sa(dp3396
g6
g7
sg8
S"Ritchie Blackmore's Rainbow"
p3397
sa(dp3398
g6
g7
sg8
S'Straight Between the Eyes'
p3399
sa(dp3400
g6
g7
sg8
S'Stranger in Us All'
p3401
sasg10
S'Rainbow'
p3402
sa(dp3403
g3
(lp3404
(dp3405
g6
g7
sg8
S'Herzeleid'
p3406
sa(dp3407
g6
g7
sg8
S'Mutter'
p3408
sa(dp3409
g6
g7
sg8
S'Reise, Reise'
p3410
sa(dp3411
g6
g7
sg8
S'Sehnsucht'
p3412
sasg10
S'Rammstein'
p3413
sa(dp3414
g3
(lp3415
(dp3416
g6
g7
sg8
S'9 Beats'
p3417
sa(dp3418
g6
g7
sg8
S'Classics'
p3419
sa(dp3420
g6
g7
sg8
S'Germany to Germany'
p3421
sa(dp3422
g6
g7
sg8
S'LP3'
p3423
sa(dp3424
g6
g7
sg8
S'LP4'
p3425
sa(dp3426
g6
g7
sg8
S'Ratatat'
p3427
sa(dp3428
g6
g7
sg8
S'Remixes Vol. 1'
p3429
sa(dp3430
g6
g7
sg8
S'Remixes Vol. 2'
p3431
sa(dp3432
g6
g7
sg8
S'Shempi'
p3433
sasg10
S'Ratatat'
p3434
sa(dp3435
g3
(lp3436
(dp3437
g6
g7
sg8
S'Ravel - Bolero, la Valse & Other Works'
p3438
sasg10
S'Ravel, Maurice'
p3439
sa(dp3440
g3
(lp3441
(dp3442
g6
g7
sg8
S'Genius Loves Company'
p3443
sasg10
S'Ray Charles'
p3444
sa(dp3445
g3
(lp3446
(dp3447
g6
g7
sg8
S'Blood Sugar Sex Magik'
p3448
sa(dp3449
g6
g7
sg8
S'By the Way'
p3450
sa(dp3451
g6
g7
sg8
S'Californication'
p3452
sasg10
S'Red Hot Chili Peppers'
p3453
sa(dp3454
g3
(lp3455
(dp3456
g6
g7
sg8
S'Red Riding Hood (Original Motion Picture Soundtrack)'
p3457
sasg10
S'Red Riding Hood'
p3458
sa(dp3459
g3
(lp3460
(dp3461
g6
g7
sg8
S'Romantic Warrior'
p3462
sasg10
S'Return to Forever'
p3463
sa(dp3464
g3
(lp3465
(dp3466
g6
g7
sg8
S'Symphony of Enchanted Lands'
p3467
sasg10
S'Rhapsody'
p3468
sa(dp3469
g3
(lp3470
(dp3471
g6
g7
sg8
S'Rheinberger :Suite Op. 149, Sechs St\xc3\xbccke Op. 150'
p3472
sasg10
S'Rheinberger'
p3473
sa(dp3474
g3
(lp3475
(dp3476
g6
g7
sg8
S'Rick Wakeman - Journey to the Centre of the Earth - MFSL (Udcd 633)'
p3477
sasg10
S'Rick Wakeman'
p3478
sa(dp3479
g3
(lp3480
(dp3481
g6
g7
sg8
S'Anno Domino High Definition'
p3482
sa(dp3483
g6
g7
sg8
S'Out of Myself'
p3484
sa(dp3485
g6
g7
sg8
S'Second Life Syndrome'
p3486
sasg10
S'Riverside'
p3487
sa(dp3488
g3
(lp3489
(dp3490
g6
g7
sg8
S'Deadringer'
p3491
sasg10
S'RjD2'
p3492
sa(dp3493
g3
(lp3494
(dp3495
g6
g7
sg8
S'8 Million Stories (Instrumentals)'
p3496
sa(dp3497
g6
g7
sg8
S'DeadSampler'
p3498
sa(dp3499
g6
g7
sg8
S'In Rare Form (Unreleased Instrumentals) Volume 2'
p3500
sa(dp3501
g6
g7
sg8
S'Magnificent City (Instrumentals)'
p3502
sa(dp3503
g6
g7
sg8
S'You Never Had It So Good VLS'
p3504
sa(dp3505
g6
g7
sg8
S'Your Face Or Your Kneecaps Mix'
p3506
sasg10
S'Rjd2'
p3507
sa(dp3508
g3
(lp3509
(dp3510
g6
g7
sg8
S'Hellbilly Deluxe'
p3511
sasg10
S'Rob Zombie'
p3512
sa(dp3513
g3
(lp3514
(dp3515
g6
g7
sg8
S'Now and Zen'
p3516
sasg10
S'Robert Plant'
p3517
sa(dp3518
g3
(lp3519
(dp3520
g6
g7
sg8
S'Amused to Death'
p3521
sa(dp3522
g6
g7
sg8
S'In the Flesh'
p3523
sa(dp3524
g6
g7
sg8
S'\xc3\x87a Ira'
p3525
sasg10
S'Roger Waters'
p3526
sa(dp3527
g3
(lp3528
(dp3529
g6
g7
sg8
S'Beggars Banquet'
p3530
sa(dp3531
g6
g7
sg8
S'Black and Blue (Umg Remastered 2009)'
p3532
sa(dp3533
g6
g7
sg8
S'Emotional Rescue (Umg Remastered 2009)'
p3534
sa(dp3535
g6
g7
sg8
S"Goat's Head Soup (Umg Remastered 2009)"
p3536
sa(dp3537
g6
g7
sg8
S"It's Only Rock 'n Roll (Umg Remastered 2009)"
p3538
sa(dp3539
g6
g7
sg8
S'Some Girls (Umg Remastered 2009)'
p3540
sa(dp3541
g6
g7
sg8
S'Sticky Fingers (Umg Remastered 2009)'
p3542
sa(dp3543
g6
g7
sg8
S'Tattoo You (Umg Remastered 2009)'
p3544
sa(dp3545
g6
g7
sg8
S'Undercover (Umg Remastered 2009)'
p3546
sasg10
S'Rolling Stones'
p3547
sa(dp3548
g3
(lp3549
(dp3550
g6
g7
sg8
S"One Off's Remixes And B Sides (CD2)"
p3551
sasg10
S'Rosie Brown'
p3552
sa(dp3553
g3
(lp3554
(dp3555
g6
g7
sg8
S'Introducing... Ruben Gonzalez'
p3556
sasg10
S'Ruben Gonzalez'
p3557
sa(dp3558
g3
(lp3559
(dp3560
g6
g7
sg8
S'A Show of Hands'
p3561
sa(dp3562
g6
g7
sg8
S"All the World's a Stage"
p3563
sa(dp3564
g6
g7
sg8
S'Caress of Steel'
p3565
sa(dp3566
g6
g7
sg8
S'Counterparts (The Rush Remasters)'
p3567
sa(dp3568
g6
g7
sg8
S'Different Stages - Live (Cd 2)'
p3569
sa(dp3570
g6
g7
sg8
S'Different Stages / Live (Disc-1)'
p3571
sa(dp3572
g6
g7
sg8
S'Different Stages / Live (Disc-3)'
p3573
sa(dp3574
g6
g7
sg8
S'Exit...Stage Left (The Rush Remasters)'
p3575
sa(dp3576
g6
g7
sg8
S'Feedback'
p3577
sa(dp3578
g6
g7
sg8
S'Gold Disc 1'
p3579
sa(dp3580
g6
g7
sg8
S'Gold Disc 2'
p3581
sa(dp3582
g6
g7
sg8
S'R30 (Disc 1)'
p3583
sa(dp3584
g6
g7
sg8
S'R30 - Disc 2'
p3585
sa(dp3586
g6
g7
sg8
S'Rush in Rio (Disc 1)'
p3587
sa(dp3588
g6
g7
sg8
S'Rush in Rio (Disc 2)'
p3589
sa(dp3590
g6
g7
sg8
S'Snakes & Arrows'
p3591
sa(dp3592
g6
g7
sg8
S'Snakes & Arrows Live (Disc 1)'
p3593
sa(dp3594
g6
g7
sg8
S'Snakes & Arrows Live (Disc 2)'
p3595
sa(dp3596
g6
g7
sg8
S'Test for Echo'
p3597
sa(dp3598
g6
g7
sg8
S'The Spirit of Radio: Greatest Hits 1974-1987'
p3599
sa(dp3600
g6
g7
sg8
S'Vapor Trails Less Vapor, the Bubba Skarda Remaster'
p3601
sasg10
S'Rush'
p3602
sa(dp3603
g3
(lp3604
(dp3605
g6
g7
sg8
S'Piano Mal'
p3606
sasg10
S'Sagot'
p3607
sa(dp3608
g3
(lp3609
(dp3610
g6
g7
sg8
S'Caravanserai'
p3611
sa(dp3612
g6
g7
sg8
S'Oneness: Silver Dreams Golden Reality'
p3613
sasg10
S'Santana'
p3614
sa(dp3615
g3
(lp3616
(dp3617
g6
g7
sg8
S'Afterglow'
p3618
sa(dp3619
g6
g7
sg8
S'Afterglow Live'
p3620
sa(dp3621
g6
g7
sg8
S'Bloom: remix Album'
p3622
sa(dp3623
g6
g7
sg8
S'Closer: the Best of Sarah McLachlan'
p3624
sa(dp3625
g6
g7
sg8
S'Fumbling Towards Ecstasy'
p3626
sa(dp3627
g6
g7
sg8
S'Mirrorball'
p3628
sa(dp3629
g6
g7
sg8
S'Rarities, B-Sides, & Other Stuff'
p3630
sa(dp3631
g6
g7
sg8
S'Rarities, B-Sides, and Other Stuff, Volume 2'
p3632
sa(dp3633
g6
g7
sg8
S'Remixed'
p3634
sa(dp3635
g6
g7
sg8
S'Solace'
p3636
sa(dp3637
g6
g7
sg8
S'Surfacing'
p3638
sa(dp3639
g6
g7
sg8
S'The Freedom Sessions'
p3640
sa(dp3641
g6
g7
sg8
S'Touch'
p3642
sa(dp3643
g6
g7
sg8
S'Wintersong'
p3644
sasg10
S'Sarah McLachlan'
p3645
sa(dp3646
g3
(lp3647
(dp3648
g6
g7
sg8
S'Rarities, B-Sides, and Other Stuff, Volume 2'
p3649
sasg10
S'Sarah McLachlan Feat. Emmylou Harris'
p3650
sa(dp3651
g3
(lp3652
(dp3653
g6
g7
sg8
S'Mr Scruff Presents Keep It Solid Steel'
p3654
sasg10
S'Sarah Winton'
p3655
sa(dp3656
g3
(lp3657
(dp3658
g6
g7
sg8
S'Deadly Sting: the Mercury Years'
p3659
sasg10
S'Scorpions'
p3660
sa(dp3661
g3
(lp3662
(dp3663
g6
g7
sg8
S'The Roots of Sepultura'
p3664
sasg10
S'Sepultura'
p3665
sa(dp3666
g3
(lp3667
(dp3668
g6
g7
sg8
S'The Best of Rachmaninov'
p3669
sasg10
S'Sergei Rachmaninoff'
p3670
sa(dp3671
g3
(lp3672
(dp3673
g6
g7
sg8
S'Harakiri'
p3674
sasg10
S'Serj Tankian'
p3675
sa(dp3676
g3
(lp3677
(dp3678
g6
g7
sg8
S'The War Within'
p3679
sasg10
S'Shadows Fall'
p3680
sa(dp3681
g3
(lp3682
(dp3683
g6
g7
sg8
S'Paul Oakenfold - Greatest Hits and Remixes'
p3684
sasg10
S'Shamen'
p3685
sa(dp3686
g3
(lp3687
(dp3688
g6
g7
sg8
S'A Whisky Kiss'
p3689
sa(dp3690
g6
g7
sg8
S'Solar Shears'
p3691
sa(dp3692
g6
g7
sg8
S'Troots'
p3693
sasg10
S'Shooglenifty'
p3694
sa(dp3695
g3
(lp3696
(dp3697
g6
g7
sg8
S'Mr Scruff Presents Keep It Solid Steel'
p3698
sasg10
S'Show & Ag'
p3699
sa(dp3700
g3
(lp3701
(dp3702
g6
g7
sg8
S'Med Sud I Eyrum Vid Spilum Endalaust'
p3703
sasg10
S'Sigur R\xc3\xb3s'
p3704
sa(dp3705
g3
(lp3706
(dp3707
g6
g7
sg8
S'At First Light'
p3708
sasg10
S'Silje Nergaard'
p3709
sa(dp3710
g3
(lp3711
(dp3712
g6
g7
sg8
S'Carnavas'
p3713
sa(dp3714
g6
g7
sg8
S'Swoon'
p3715
sasg10
S'Silversun Pickups'
p3716
sa(dp3717
g3
(lp3718
(dp3719
g6
g7
sg8
S'Bookends'
p3720
sa(dp3721
g6
g7
sg8
S'Bridge Over Troubled Water'
p3722
sa(dp3723
g6
g7
sg8
S'Parsley, Sage, Rosemary and Thyme'
p3724
sa(dp3725
g6
g7
sg8
S'Sounds of Silence'
p3726
sa(dp3727
g6
g7
sg8
S'Wednesday Morning, 3 A.M.'
p3728
sasg10
S'Simon and Garfunkel'
p3729
sa(dp3730
g3
(lp3731
(dp3732
g6
g7
sg8
S"One Off's Remixes And B Sides (CD1)"
p3733
sasg10
S'Skalpel'
p3734
sa(dp3735
g3
(lp3736
(dp3737
g6
g7
sg8
S'Scary Monsters and Nice Sprites'
p3738
sasg10
S'Skrillex'
p3739
sa(dp3740
g3
(lp3741
(dp3742
g6
g7
sg8
S'Paul Oakenfold - Greatest Hits and Remixes'
p3743
sasg10
S'Skunk Anansie'
p3744
sa(dp3745
g3
(lp3746
(dp3747
g6
g7
sg8
S'Decade of Aggression: Live (Cd1)'
p3748
sa(dp3749
g6
g7
sg8
S'Decade of Aggression: Live (Cd2)'
p3750
sa(dp3751
g6
g7
sg8
S'South of Heaven'
p3752
sasg10
S'Slayer'
p3753
sa(dp3754
g3
(lp3755
(dp3756
g6
g7
sg8
S'Iowa'
p3757
sasg10
S'Slipknot'
p3758
sa(dp3759
g3
(lp3760
(dp3761
g6
g7
sg8
S'The Best of Solomon Burke'
p3762
sasg10
S'Solomon Burke'
p3763
sa(dp3764
g3
(lp3765
(dp3766
g6
g7
sg8
S'We Are Rising'
p3767
sasg10
S'Son Lux'
p3768
sa(dp3769
g3
(lp3770
(dp3771
g6
g7
sg8
S'Experimental Jet Set, Trash and No Star'
p3772
sasg10
S'Sonic Youth'
p3773
sa(dp3774
g3
(lp3775
(dp3776
g6
g7
sg8
S'Mr Scruff Presents Keep It Solid Steel'
p3777
sasg10
S'Soul Ii Soul'
p3778
sa(dp3779
g3
(lp3780
(dp3781
g6
g7
sg8
S'8 Million Stories'
p3782
sasg10
S'Soul Position'
p3783
sa(dp3784
g3
(lp3785
(dp3786
g6
g7
sg8
S'Mr Scruff Presents Keep It Solid Steel'
p3787
sasg10
S'Spaghetti Head'
p3788
sa(dp3789
g3
(lp3790
(dp3791
g6
g7
sg8
S"I'm Thankful"
p3792
sasg10
S'Spanky Wilson & The Quantic Soul Orchestra'
p3793
sa(dp3794
g3
(lp3795
(dp3796
g6
g7
sg8
S'Spock\xe2\x80\x99S Beard'
p3797
sasg10
S'Spocks Beard'
p3798
sa(dp3799
g3
(lp3800
(dp3801
g6
g7
sg8
S'Collection'
p3802
sa(dp3803
g6
g7
sg8
S'Down the Wire'
p3804
sa(dp3805
g6
g7
sg8
S'Morning Dance'
p3806
sasg10
S'Spyro Gyra'
p3807
sa(dp3808
g3
(lp3809
(dp3810
g6
g7
sg8
S'Bedlam Ballroom'
p3811
sa(dp3812
g6
g7
sg8
S'Christmas Caravan'
p3813
sa(dp3814
g6
g7
sg8
S'Perennial Favorites'
p3815
sa(dp3816
g6
g7
sg8
S'Roasted Right'
p3817
sa(dp3818
g6
g7
sg8
S'Sold Out'
p3819
sa(dp3820
g6
g7
sg8
S'The Best Of'
p3821
sa(dp3822
g6
g7
sg8
S'The Inevitable'
p3823
sasg10
S'Squirrel Nut Zippers'
p3824
sa(dp3825
g3
(lp3826
(dp3827
g6
g7
sg8
S'Compact Jazz - Stan Getz & Friends'
p3828
sa(dp3829
g6
g7
sg8
S'Getz for Lovers'
p3830
sa(dp3831
g6
g7
sg8
S'Jazz Samba'
p3832
sa(dp3833
g6
g7
sg8
S'Nighthawk (Disc 2)'
p3834
sa(dp3835
g6
g7
sg8
S'The Essential Stan Getz'
p3836
sasg10
S'Stan Getz'
p3837
sa(dp3838
g3
(lp3839
(dp3840
g6
g7
sg8
S'Stan Getz and the Oscar Peterson Trio'
p3841
sasg10
S'Stan Getz and the Oscar Peterson Trio'
p3842
sa(dp3843
g3
(lp3844
(dp3845
g6
g7
sg8
S'Live on Earth'
p3846
sa(dp3847
g6
g7
sg8
S'Space Metal'
p3848
sasg10
S'Star One'
p3849
sa(dp3850
g3
(lp3851
(dp3852
g6
g7
sg8
S'Set Yourself on Fire'
p3853
sasg10
S'Stars'
p3854
sa(dp3855
g3
(lp3856
(dp3857
g6
g7
sg8
S'Just Enough Education to Perform'
p3858
sa(dp3859
g6
g7
sg8
S'Word Gets Around'
p3860
sa(dp3861
g6
g7
sg8
S'You Gotta Go There to Come Back'
p3862
sasg10
S'Stereophonics'
p3863
sa(dp3864
g3
(lp3865
(dp3866
g6
g7
sg8
S'To Watch the Storms <Special Edition>'
p3867
sasg10
S'Steve Hackett'
p3868
sa(dp3869
g3
(lp3870
(dp3871
g6
g7
sg8
S'Passion and Warfare'
p3872
sa(dp3873
g6
g7
sg8
S'Sex & Religion'
p3874
sa(dp3875
g6
g7
sg8
S'The Ultra Zone'
p3876
sasg10
S'Steve Vai'
p3877
sa(dp3878
g3
(lp3879
(dp3880
g6
g7
sg8
S'Insurgentes'
p3881
sasg10
S'Steven Wilson'
p3882
sa(dp3883
g3
(lp3884
(dp3885
g6
g7
sg8
S"It's Still Called the Blues"
p3886
sa(dp3887
g6
g7
sg8
S'The Sky Is Crying'
p3888
sasg10
S'Stevie Ray Vaughan'
p3889
sa(dp3890
g3
(lp3891
(dp3892
g6
g7
sg8
S'Journey Through the Secret Life of Plants (Disc 1)'
p3893
sa(dp3894
g6
g7
sg8
S'Journey Through the Secret Life of Plants (Disc 2)'
p3895
sasg10
S'Stevie Wonder'
p3896
sa(dp3897
g3
(lp3898
(dp3899
g6
g7
sg8
S'The Very Best of Sting & The Police'
p3900
sasg10
S'Sting and the Police'
p3901
sa(dp3902
g3
(lp3903
(dp3904
g6
g7
sg8
S'Mr Scruff Presents Keep It Solid Steel'
p3905
sasg10
S'Stone Alliance'
p3906
sa(dp3907
g3
(lp3908
(dp3909
g6
g7
sg8
S'Embrace the Storm'
p3910
sa(dp3911
g6
g7
sg8
S'Live in the Real World'
p3912
sa(dp3913
g6
g7
sg8
S'Out in the Real World'
p3914
sasg10
S'Stream of Passion'
p3915
sa(dp3916
g3
(lp3917
(dp3918
g6
g7
sg8
S'Sleeping Beauty'
p3919
sasg10
S'Sun Ra'
p3920
sa(dp3921
g3
(lp3922
(dp3923
g6
g7
sg8
S'...Famous Last Words...'
p3924
sa(dp3925
g6
g7
sg8
S'Breakfast in America [SHM-CD]'
p3926
sa(dp3927
g6
g7
sg8
S'Brother Where You Bound'
p3928
sa(dp3929
g6
g7
sg8
S'Crime of the Century'
p3930
sa(dp3931
g6
g7
sg8
S'Even in the Quietest Moments...'
p3932
sa(dp3933
g6
g7
sg8
S'Free as a Bird'
p3934
sa(dp3935
g6
g7
sg8
S'Indelibly Stamped'
p3936
sa(dp3937
g6
g7
sg8
S'Paris (Disc 1)'
p3938
sa(dp3939
g6
g7
sg8
S'Paris (Disc 2)'
p3940
sa(dp3941
g6
g7
sg8
S'Supertramp'
p3942
sasg10
S'Supertramp'
p3943
sa(dp3944
g3
(lp3945
(dp3946
g6
g7
sg8
S'Grow'
p3947
sasg10
S'Switchstance Recordings'
p3948
sa(dp3949
g3
(lp3950
(dp3951
g6
g7
sg8
S'Paradise Lost'
p3952
sa(dp3953
g6
g7
sg8
S'Symphony X'
p3954
sa(dp3955
g6
g7
sg8
S'The Damnation Game'
p3956
sa(dp3957
g6
g7
sg8
S'The Divine Wings of Tragedy'
p3958
sa(dp3959
g6
g7
sg8
S'The Odyssey'
p3960
sa(dp3961
g6
g7
sg8
S'Twilight in Olympus'
p3962
sa(dp3963
g6
g7
sg8
S'V: the New Mythology Suite'
p3964
sasg10
S'Symphony X'
p3965
sa(dp3966
g3
(lp3967
(dp3968
g6
g7
sg8
S'Toxicity'
p3969
sasg10
S'System of a Down'
p3970
sa(dp3971
g3
(lp3972
(dp3973
g6
g7
sg8
S'Innerspeaker'
p3974
sasg10
S'Tame Impala'
p3975
sa(dp3976
g3
(lp3977
(dp3978
g6
g7
sg8
S'Force Majeure'
p3979
sa(dp3980
g6
g7
sg8
S'Hyperborea'
p3981
sasg10
S'Tangerine Dream'
p3982
sa(dp3983
g3
(lp3984
(dp3985
g6
g7
sg8
S'1812 Overture'
p3986
sasg10
S'Tchaikovsky'
p3987
sa(dp3988
g3
(lp3989
(dp3990
g6
g7
sg8
S'1812 Overture'
p3991
sa(dp3992
g6
g7
sg8
S'Sleeping Beauty (Cd 2)'
p3993
sa(dp3994
g6
g7
sg8
S'The Sleeping Beauty, Op.66 (Cd 1)'
p3995
sasg10
S'Tcha\xc3\xafkovsky'
p3996
sa(dp3997
g3
(lp3998
(dp3999
g6
g7
sg8
S'Songs From the Big Chair [Remastered Plus Bonus Tracks]'
p4000
sa(dp4001
g6
g7
sg8
S'The Hurting [Remastered and Expanded]'
p4002
sasg10
S'Tears for Fears'
p4003
sa(dp4004
g3
(lp4005
(dp4006
g6
g7
sg8
S'El Abayarde'
p4007
sasg10
S'Tego Calder\xc3\xb3n'
p4008
sa(dp4009
g3
(lp4010
(dp4011
g6
g7
sg8
S'I Robot'
p4012
sa(dp4013
g6
g7
sg8
S'Stereotomy'
p4014
sa(dp4015
g6
g7
sg8
S'Tales of Mystery and Imagination'
p4016
sa(dp4017
g6
g7
sg8
S'The Time Machine'
p4018
sasg10
S'The Alan Parsons Project'
p4019
sa(dp4020
g3
(lp4021
(dp4022
g6
g7
sg8
S'Birth of the Swerve'
p4023
sa(dp4024
g6
g7
sg8
S'Torch This Place'
p4025
sasg10
S'The Atomic Fireballs'
p4026
sa(dp4027
g3
(lp4028
(dp4029
g6
g7
sg8
S'Abbey Road'
p4030
sa(dp4031
g6
g7
sg8
S'The Beatles (The White Album) CD1'
p4032
sa(dp4033
g6
g7
sg8
S'The Beatles (The White Album) CD2'
p4034
sasg10
S'The Beatles'
p4035
sa(dp4036
g3
(lp4037
(dp4038
g6
g7
sg8
S'Attack & Release'
p4039
sa(dp4040
g6
g7
sg8
S'Attack and Release'
p4041
sa(dp4042
g6
g7
sg8
S'Brothers'
p4043
sa(dp4044
g6
g7
sg8
S'Chulahoma: the Songs of Junior Kimbrough'
p4045
sa(dp4046
g6
g7
sg8
S'Magic Potion'
p4047
sa(dp4048
g6
g7
sg8
S'Rubber Factory'
p4049
sa(dp4050
g6
g7
sg8
S'The Big Come Up'
p4051
sa(dp4052
g6
g7
sg8
S'The Moan'
p4053
sa(dp4054
g6
g7
sg8
S'Thickfreakness'
p4055
sasg10
S'The Black Keys'
p4056
sa(dp4057
g3
(lp4058
(dp4059
g6
g7
sg8
S'Dig Your Own Hole'
p4060
sasg10
S'The Chemical Brothers'
p4061
sa(dp4062
g3
(lp4063
(dp4064
g6
g7
sg8
S'Everyday'
p4065
sa(dp4066
g6
g7
sg8
S'Motion'
p4067
sasg10
S'The Cinematic Orchestra'
p4068
sa(dp4069
g3
(lp4070
(dp4071
g6
g7
sg8
S'Clash on Broadway (Extras + Rarities)'
p4072
sa(dp4073
g6
g7
sg8
S'Combat Rock'
p4074
sa(dp4075
g6
g7
sg8
S'From Here to Eternity (live)'
p4076
sa(dp4077
g6
g7
sg8
S"Give 'em Enough Rope"
p4078
sa(dp4079
g6
g7
sg8
S'London Calling'
p4080
sa(dp4081
g6
g7
sg8
S'Sandinista!'
p4082
sa(dp4083
g6
g7
sg8
S'Super Black Market Clash (B-Sides Collection)'
p4084
sasg10
S'The Clash'
p4085
sa(dp4086
g3
(lp4087
(dp4088
g6
g7
sg8
S'No Need to Argue'
p4089
sasg10
S'The Cranberries'
p4090
sa(dp4091
g3
(lp4092
(dp4093
g6
g7
sg8
S'Greatest Hits'
p4094
sa(dp4095
g6
g7
sg8
S'Paul Oakenfold - Greatest Hits and Remixes'
p4096
sasg10
S'The Cure'
p4097
sa(dp4098
g3
(lp4099
(dp4100
g6
g7
sg8
S'Gang of Losers'
p4101
sa(dp4102
g6
g7
sg8
S'No Cities Left'
p4103
sasg10
S'The Dears'
p4104
sa(dp4105
g3
(lp4106
(dp4107
g6
g7
sg8
S'L.A. Woman'
p4108
sa(dp4109
g6
g7
sg8
S'Legend of the Black Shawarma'
p4110
sa(dp4111
g6
g7
sg8
S'Morrison Hotel'
p4112
sa(dp4113
g6
g7
sg8
S'Strange Days'
p4114
sa(dp4115
g6
g7
sg8
S'The Best of the Doors'
p4116
sa(dp4117
g6
g7
sg8
S'The Doors'
p4118
sa(dp4119
g6
g7
sg8
S'The Soft Parade'
p4120
sa(dp4121
g6
g7
sg8
S'Waiting for the Sun'
p4122
sasg10
S'The Doors'
p4123
sa(dp4124
g3
(lp4125
(dp4126
g6
g7
sg8
S'The Drums'
p4127
sasg10
S'The Drums'
p4128
sa(dp4129
g3
(lp4130
(dp4131
g6
g7
sg8
S'Psychocandy'
p4132
sasg10
S'The Jesus and Mary Chain'
p4133
sa(dp4134
g3
(lp4135
(dp4136
g6
g7
sg8
S'Johannes Brahms - the Complete Trios [Disc 1]'
p4137
sa(dp4138
g6
g7
sg8
S'Johannes Brahms - the Complete Trios [Disc 2]'
p4139
sa(dp4140
g6
g7
sg8
S'Symphony No. 1 \xe2\x80\xa2 Overtures'
p4141
sasg10
S'The Johannes Brahms'
p4142
sa(dp4143
g3
(lp4144
(dp4145
g6
g7
sg8
S'Day & Age'
p4146
sa(dp4147
g6
g7
sg8
S'Hot Fuss'
p4148
sasg10
S'The Killers'
p4149
sa(dp4150
g3
(lp4151
(dp4152
g6
g7
sg8
S'Deep Cuts'
p4153
sa(dp4154
g6
g7
sg8
S'Hannah Med H Soundtrack'
p4155
sa(dp4156
g6
g7
sg8
S'Like a Pen'
p4157
sa(dp4158
g6
g7
sg8
S'Marble House'
p4159
sa(dp4160
g6
g7
sg8
S'Silent Shout'
p4161
sa(dp4162
g6
g7
sg8
S'The Knife'
p4163
sa(dp4164
g6
g7
sg8
S"We Share Our Mothers' Health"
p4165
sasg10
S'The Knife'
p4166
sa(dp4167
g3
(lp4168
(dp4169
g6
g7
sg8
S'TalesFrom Beyond the Groove'
p4170
sasg10
S'The Limp Twins'
p4171
sa(dp4172
g3
(lp4173
(dp4174
g6
g7
sg8
S'Incredibad'
p4175
sasg10
S'The Lonely Island'
p4176
sa(dp4177
g3
(lp4178
(dp4179
g6
g7
sg8
S'The Lord of the Rings - the Return of the King - the Complete Recordings'
p4180
sasg10
S'The Lord of the Rings Soundtrack'
p4181
sa(dp4182
g3
(lp4183
(dp4184
g6
g7
sg8
S'Lost in the 80s'
p4185
sasg10
S'The Lost Fingers'
p4186
sa(dp4187
g3
(lp4188
(dp4189
g6
g7
sg8
S'Amputechture'
p4190
sa(dp4191
g6
g7
sg8
S'De\xe2\x80\x90Loused in the Comatorium'
p4192
sa(dp4193
g6
g7
sg8
S'Frances the Mute'
p4194
sa(dp4195
g6
g7
sg8
S'The Bedlam in Goliath'
p4196
sasg10
S'The Mars Volta'
p4197
sa(dp4198
g3
(lp4199
(dp4200
g6
g7
sg8
S'Americana'
p4201
sa(dp4202
g6
g7
sg8
S'Conspiracy of One'
p4203
sa(dp4204
g6
g7
sg8
S'Ignition'
p4205
sa(dp4206
g6
g7
sg8
S'Ixnay on the Hombre'
p4207
sa(dp4208
g6
g7
sg8
S'Smash'
p4209
sa(dp4210
g6
g7
sg8
S'Splinter'
p4211
sa(dp4212
g6
g7
sg8
S'The Offspring'
p4213
sasg10
S'The Offspring'
p4214
sa(dp4215
g3
(lp4216
(dp4217
g6
g7
sg8
S"One Off's Remixes And B Sides (CD2)"
p4218
sasg10
S'The Ogyatanaa Show Band'
p4219
sa(dp4220
g3
(lp4221
(dp4222
g6
g7
sg8
S'2010 - Metallic Spheres'
p4223
sasg10
S'The Orb Featuring David Gilmour'
p4224
sa(dp4225
g3
(lp4226
(dp4227
g6
g7
sg8
S'Mr Scruff Presents Keep It Solid Steel'
p4228
sasg10
S'The Peddlers'
p4229
sa(dp4230
g3
(lp4231
(dp4232
g6
g7
sg8
S'Invaders Must Die [Bonus Tracks]'
p4233
sa(dp4234
g6
g7
sg8
S'The Fat of the Land'
p4235
sasg10
S'The Prodigy'
p4236
sa(dp4237
g3
(lp4238
(dp4239
g6
g7
sg8
S'Pushin On'
p4240
sa(dp4241
g6
g7
sg8
S"Pushin' On(vinyl)"
p4242
sa(dp4243
g6
g7
sg8
S'Stampede'
p4244
sa(dp4245
g6
g7
sg8
S'Stampede [UK]'
p4246
sa(dp4247
g6
g7
sg8
S'The Document II'
p4248
sa(dp4249
g6
g7
sg8
S'Tropidelico'
p4250
sasg10
S'The Quantic Soul Orchestra'
p4251
sa(dp4252
g3
(lp4253
(dp4254
g6
g7
sg8
S'Lesser Matters'
p4255
sasg10
S'The Radio Dept.'
p4256
sa(dp4257
g3
(lp4258
(dp4259
g6
g7
sg8
S'Phrenology'
p4260
sasg10
S'The Roots'
p4261
sa(dp4262
g3
(lp4263
(dp4264
g6
g7
sg8
S'Big Stand'
p4265
sa(dp4266
g6
g7
sg8
S'Five Easy Pieces [EP]'
p4267
sa(dp4268
g6
g7
sg8
S'Learn & Burn'
p4269
sa(dp4270
g6
g7
sg8
S'Trying to Grow'
p4271
sasg10
S'The Sheepdogs'
p4272
sa(dp4273
g3
(lp4274
(dp4275
g6
g7
sg8
S'Long May You Run'
p4276
sasg10
S'The Stills-Young Band'
p4277
sa(dp4278
g3
(lp4279
(dp4280
g6
g7
sg8
S'Room on Fire'
p4281
sasg10
S'The Strokes'
p4282
sa(dp4283
g3
(lp4284
(dp4285
g6
g7
sg8
S'A Place in the Queue'
p4286
sasg10
S'The Tangent'
p4287
sa(dp4288
g3
(lp4289
(dp4290
g6
g7
sg8
S'Fully Completely'
p4291
sa(dp4292
g6
g7
sg8
S'Road Apples'
p4293
sasg10
S'The Tragically Hip'
p4294
sa(dp4295
g3
(lp4296
(dp4297
g6
g7
sg8
S'This Is Music:the Singles 92-98'
p4298
sasg10
S'The Verve'
p4299
sa(dp4300
g3
(lp4301
(dp4302
g6
g7
sg8
S'Remix Marks Destination'
p4303
sasg10
S'The Whip'
p4304
sa(dp4305
g3
(lp4306
(dp4307
g6
g7
sg8
S'Icky Thump'
p4308
sasg10
S'The White Stripes'
p4309
sa(dp4310
g3
(lp4311
(dp4312
g6
g7
sg8
S'Xx'
p4313
sasg10
S'The Xx'
p4314
sa(dp4315
g3
(lp4316
(dp4317
g6
g7
sg8
S"A'arab Zaraq Lucid Dreaming"
p4318
sa(dp4319
g6
g7
sg8
S'Beyond Sanctorum'
p4320
sa(dp4321
g6
g7
sg8
S'Celebrators of Becoming (Cd1)'
p4322
sa(dp4323
g6
g7
sg8
S'Celebrators of Becoming (Cd2)'
p4324
sa(dp4325
g6
g7
sg8
S'Crowning of Atlantis'
p4326
sa(dp4327
g6
g7
sg8
S'Deggial'
p4328
sa(dp4329
g6
g7
sg8
S'Gothic Kabbalah'
p4330
sa(dp4331
g6
g7
sg8
S'Lemuria'
p4332
sa(dp4333
g6
g7
sg8
S'Lepaca Kliffoth'
p4334
sa(dp4335
g6
g7
sg8
S'Live in Midgard'
p4336
sa(dp4337
g6
g7
sg8
S'Secret of the Runes'
p4338
sa(dp4339
g6
g7
sg8
S'Sirius B'
p4340
sa(dp4341
g6
g7
sg8
S'Symphony Masses: Ho Drakon Ho Megas'
p4342
sa(dp4343
g6
g7
sg8
S'The Beauty in Black (Ep)'
p4344
sa(dp4345
g6
g7
sg8
S'The Siren of the Woods'
p4346
sa(dp4347
g6
g7
sg8
S'Theli'
p4348
sa(dp4349
g6
g7
sg8
S'Time Shall Tell'
p4350
sa(dp4351
g6
g7
sg8
S'Vovin'
p4352
sasg10
S'Therion'
p4353
sa(dp4354
g3
(lp4355
(dp4356
g6
g7
sg8
S'Sounds From the Thievery Hi-Fi'
p4357
sa(dp4358
g6
g7
sg8
S'The Mirror Conspiracy'
p4359
sa(dp4360
g6
g7
sg8
S'The Richest Man in Babylon'
p4361
sasg10
S'Thievery Corporation'
p4362
sa(dp4363
g3
(lp4364
(dp4365
g6
g7
sg8
S'Thunderdome'
p4366
sasg10
S'Thunderdome'
p4367
sa(dp4368
g3
(lp4369
(dp4370
g6
g7
sg8
S'A Deeper Kind of Slumber'
p4371
sa(dp4372
g6
g7
sg8
S'Amanethes'
p4373
sa(dp4374
g6
g7
sg8
S'Wildhoney'
p4375
sasg10
S'Tiamat'
p4376
sa(dp4377
g3
(lp4378
(dp4379
g6
g7
sg8
S'Shock Value II'
p4380
sasg10
S'Timbaland'
p4381
sa(dp4382
g3
(lp4383
(dp4384
g6
g7
sg8
S'Shock Value II'
p4385
sasg10
S"Timbaland Feat. Attitude, Bran'nu and D.O.E."
p4386
sa(dp4387
g3
(lp4388
(dp4389
g6
g7
sg8
S'Shock Value II'
p4390
sasg10
S"Timbaland Feat. Bran' Nu"
p4391
sa(dp4392
g3
(lp4393
(dp4394
g6
g7
sg8
S'Shock Value II'
p4395
sasg10
S'Timbaland Feat. Chad Kroeger and Sebastian'
p4396
sa(dp4397
g3
(lp4398
(dp4399
g6
g7
sg8
S'Shock Value II'
p4400
sasg10
S'Timbaland Feat. Daughtry'
p4401
sa(dp4402
g3
(lp4403
(dp4404
g6
g7
sg8
S'Shock Value II'
p4405
sasg10
S'Timbaland Feat. Drake'
p4406
sa(dp4407
g3
(lp4408
(dp4409
g6
g7
sg8
S'Shock Value II'
p4410
sasg10
S'Timbaland Feat. Jet'
p4411
sa(dp4412
g3
(lp4413
(dp4414
g6
g7
sg8
S'Shock Value II'
p4415
sasg10
S'Timbaland Feat. Jojo'
p4416
sa(dp4417
g3
(lp4418
(dp4419
g6
g7
sg8
S'Shock Value II'
p4420
sasg10
S'Timbaland Feat. Justin Timberlake'
p4421
sa(dp4422
g3
(lp4423
(dp4424
g6
g7
sg8
S'Shock Value II'
p4425
sasg10
S'Timbaland Feat. Katy Perry'
p4426
sa(dp4427
g3
(lp4428
(dp4429
g6
g7
sg8
S'Shock Value II'
p4430
sasg10
S'Timbaland Feat. Keri Hilson and D.O.E.'
p4431
sa(dp4432
g3
(lp4433
(dp4434
g6
g7
sg8
S'Shock Value II'
p4435
sasg10
S'Timbaland Feat. Miley Cyrus'
p4436
sa(dp4437
g3
(lp4438
(dp4439
g6
g7
sg8
S'Shock Value II'
p4440
sasg10
S'Timbaland Feat. Nelly Furtado and Soshy'
p4441
sa(dp4442
g3
(lp4443
(dp4444
g6
g7
sg8
S'Shock Value II'
p4445
sasg10
S'Timbaland Feat. Onerepublic'
p4446
sa(dp4447
g3
(lp4448
(dp4449
g6
g7
sg8
S'Shock Value II'
p4450
sasg10
S'Timbaland Feat. Sebastian and Esthero'
p4451
sa(dp4452
g3
(lp4453
(dp4454
g6
g7
sg8
S'Shock Value II'
p4455
sasg10
S'Timbaland Feat. the Fray and Esthero'
p4456
sa(dp4457
g3
(lp4458
(dp4459
g6
g7
sg8
S'Mr Scruff Presents Keep It Solid Steel'
p4460
sasg10
S'Tipper'
p4461
sa(dp4462
g3
(lp4463
(dp4464
g6
g7
sg8
S'Franks Wild Years'
p4465
sa(dp4466
g6
g7
sg8
S'Rain Dogs'
p4467
sasg10
S'Tom Waits'
p4468
sa(dp4469
g3
(lp4470
(dp4471
g6
g7
sg8
S'10,000 Days'
p4472
sa(dp4473
g6
g7
sg8
S'Lateralus'
p4474
sa(dp4475
g6
g7
sg8
S'Tales From the Darkside'
p4476
sa(dp4477
g6
g7
sg8
S'Undertow'
p4478
sasg10
S'Tool'
p4479
sa(dp4480
g3
(lp4481
(dp4482
g6
g7
sg8
S'Undertow'
p4483
sasg10
S'Tool Feat. Henry Rollins'
p4484
sa(dp4485
g3
(lp4486
(dp4487
g6
g7
sg8
S'Dune'
p4488
sasg10
S'Toto'
p4489
sa(dp4490
g3
(lp4491
(dp4492
g6
g7
sg8
S'Crossroads'
p4493
sasg10
S'Tracy Chapman'
p4494
sa(dp4495
g3
(lp4496
(dp4497
g6
g7
sg8
S'Dive'
p4498
sasg10
S'Tycho'
p4499
sa(dp4500
g3
(lp4501
(dp4502
g6
g7
sg8
S'The Best of 1980-1990'
p4503
sasg10
S'U2'
p4504
sa(dp4505
g3
(lp4506
(dp4507
g6
g7
sg8
S'Mr Scruff Presents Keep It Solid Steel'
p4508
sasg10
S'Ultramagnetic Mcs'
p4509
sa(dp4510
g3
(lp4511
(dp4512
g6
g7
sg8
S'Bergtatt: Et Eeventyr I 5 Capitler'
p4513
sa(dp4514
g6
g7
sg8
S'Blood Inside'
p4515
sa(dp4516
g6
g7
sg8
S'Perdition City: Music to an Interior Film'
p4517
sa(dp4518
g6
g7
sg8
S'Wars of the Roses'
p4519
sasg10
S'Ulver'
p4520
sa(dp4521
g3
(lp4522
(dp4523
g6
g7
sg8
S'Paul Oakenfold - Greatest Hits and Remixes'
p4524
sasg10
S'Underworld'
p4525
sa(dp4526
g3
(lp4527
(dp4528
g6
g7
sg8
S"One Off's Remixes And B Sides (CD2)"
p4529
sasg10
S'United Future Organisation'
p4530
sa(dp4531
g3
(lp4532
(dp4533
g6
g7
sg8
S'Unknown Album (7/25/2008 3:30:24 PM)'
p4534
sa(dp4535
g6
g7
sg8
S'Unknown Album (7/5/2005 3:52:23 \xc3\xac\xc3\xac)'
p4536
sasg10
S'Unknown Artist'
p4537
sa(dp4538
g3
(lp4539
(dp4540
g6
g7
sg8
S'Demons and Wizards'
p4541
sasg10
S'Uriah Heep'
p4542
sa(dp4543
g3
(lp4544
(dp4545
g6
g7
sg8
S'Mr Scruff Presents Keep It Solid Steel'
p4546
sasg10
S'Utd'
p4547
sa(dp4548
g3
(lp4549
(dp4550
g6
g7
sg8
S'Gypsy Swing'
p4551
sasg10
S'VA'
p4552
sa(dp4553
g3
(lp4554
(dp4555
g6
g7
sg8
S'Godbluff'
p4556
sasg10
S'Van Der Graaf Generator'
p4557
sa(dp4558
g3
(lp4559
(dp4560
g6
g7
sg8
S'Blade Runner'
p4561
sasg10
S'Vangelis'
p4562
sa(dp4563
g3
(lp4564
(dp4565
g6
g7
sg8
S'Music From the Motion Picture'
p4566
sasg10
S'Various Artists'
p4567
sa(dp4568
g3
(lp4569
(dp4570
g6
g7
sg8
S"One Off's Remixes And B Sides (CD1)"
p4571
sasg10
S'Victor Malloy'
p4572
sa(dp4573
g3
(lp4574
(dp4575
g6
g7
sg8
S'Music For Space Tourism Vol. 1'
p4576
sasg10
S'Visit Venus'
p4577
sa(dp4578
g3
(lp4579
(dp4580
g6
g7
sg8
S'Flashmob'
p4581
sasg10
S'Vitalic'
p4582
sa(dp4583
g3
(lp4584
(dp4585
g6
g7
sg8
S'The Four Seasons'
p4586
sasg10
S'Vivaldi'
p4587
sa(dp4588
g3
(lp4589
(dp4590
g6
g7
sg8
S'Balance Of The Force'
p4591
sa(dp4592
g6
g7
sg8
S'Balance of the Force Remixed'
p4593
sa(dp4594
g6
g7
sg8
S'Ballroom Stories'
p4595
sa(dp4596
g6
g7
sg8
S'Northern Lights'
p4597
sa(dp4598
g6
g7
sg8
S'Reflowered'
p4599
sa(dp4600
g6
g7
sg8
S'The Night Garden'
p4601
sasg10
S'Waldeck'
p4602
sa(dp4603
g3
(lp4604
(dp4605
g6
g7
sg8
S"Talkin' Verve: Roots of Acid Jazz"
p4606
sasg10
S'Wes Montgomery'
p4607
sa(dp4608
g3
(lp4609
(dp4610
g6
g7
sg8
S'Greatest Hits'
p4611
sasg10
S'Whitesnake'
p4612
sa(dp4613
g3
(lp4614
(dp4615
g6
g7
sg8
S'All I Need'
p4616
sa(dp4617
g6
g7
sg8
S'Angels'
p4618
sa(dp4619
g6
g7
sg8
S'Destroyed'
p4620
sa(dp4621
g6
g7
sg8
S'Enter'
p4622
sa(dp4623
g6
g7
sg8
S'Forgiven'
p4624
sa(dp4625
g6
g7
sg8
S'Frozen'
p4626
sa(dp4627
g6
g7
sg8
S'Ice Queen'
p4628
sa(dp4629
g6
g7
sg8
S'Memories'
p4630
sa(dp4631
g6
g7
sg8
S'Mother Earth'
p4632
sa(dp4633
g6
g7
sg8
S'Mother Earth Tour'
p4634
sa(dp4635
g6
g7
sg8
S'Restless'
p4636
sa(dp4637
g6
g7
sg8
S'Running Up That Hill'
p4638
sa(dp4639
g6
g7
sg8
S'Stand My Ground'
p4640
sa(dp4641
g6
g7
sg8
S'The Dance'
p4642
sa(dp4643
g6
g7
sg8
S'The Heart of Everything'
p4644
sa(dp4645
g6
g7
sg8
S'The Silent Force'
p4646
sa(dp4647
g6
g7
sg8
S'The Silent Force Tour'
p4648
sa(dp4649
g6
g7
sg8
S'What Have You Done'
p4650
sasg10
S'Within Temptation'
p4651
sa(dp4652
g3
(lp4653
(dp4654
g6
g7
sg8
S'Black Symphony'
p4655
sasg10
S'Within Temptation and the Metropole Orchestra'
p4656
sa(dp4657
g3
(lp4658
(dp4659
g6
g7
sg8
S'Close to the Edge'
p4660
sa(dp4661
g6
g7
sg8
S'Fragile'
p4662
sa(dp4663
g6
g7
sg8
S'Relayer'
p4664
sa(dp4665
g6
g7
sg8
S'Tales From Topographic Oceans'
p4666
sa(dp4667
g6
g7
sg8
S'Yessongs'
p4668
sasg10
S'Yes'
p4669
sa(dp4670
g3
(lp4671
(dp4672
g6
g7
sg8
S'Simple Things'
p4673
sa(dp4674
g6
g7
sg8
S'The Garden (Japan)'
p4675
sa(dp4676
g6
g7
sg8
S'When It Falls'
p4677
sa(dp4678
g6
g7
sg8
S'Yeah Ghost'
p4679
sasg10
S'Zero 7'
p4680
sa(dp4681
g3
(lp4682
(dp4683
g6
g7
sg8
S'An Awesome Wave'
p4684
sasg10
S'alt-J'
p4685
sa(dp4686
g3
(lp4687
(dp4688
g6
g7
sg8
S'rough cuts'
p4689
sa(dp4690
g6
g7
sg8
S'wanna get'
p4691
sasg10
S'parov stelar'
p4692
sa(dp4693
g3
(lp4694
(dp4695
g6
g7
sg8
S'perception'
p4696
sasg10
S'quantic'
p4697
sa(dp4698
g3
(lp4699
(dp4700
g6
g7
sg8
S'Rasa: Exotica, Vol. 3'
p4701
sasg10
S'the quantic soul orchestra'
p4702
sa(dp4703
g3
(lp4704
(dp4705
g6
g7
sg8
S'make my day ep'
p4706
sasg10
S'waldeck'
p4707
sa.