(lp1
(lp2
S'2day & 2moro'
p3
aS'art/nocover.png'
p4
aa(lp5
S'3'
ag4
aa(lp6
S'3 Mins (feat. Mark Murphy)'
p7
ag4
aa(lp8
S'A Fine Frenzy'
p9
ag4
aa(lp10
S'ABBA'
p11
ag4
aa(lp12
S'AC/DC'
p13
ag4
aa(lp14
S'Aceyalone and Rjd2'
p15
ag4
aa(lp16
S'After Forever'
p17
ag4
aa(lp18
S'Agua de Annique'
p19
ag4
aa(lp20
S'Akido'
p21
ag4
aa(lp22
S'Alanis Morissette'
p23
ag4
aa(lp24
S'All That Remains'
p25
ag4
aa(lp26
S'Ambeon'
p27
ag4
aa(lp28
S'Amon Amarth'
p29
ag4
aa(lp30
S'Amon Tobin'
p31
ag4
aa(lp32
S'Anathema'
p33
ag4
aa(lp34
S'Andreas Juffinger'
p35
ag4
aa(lp36
S'Angelo Badalamenti'
p37
ag4
aa(lp38
S'Angra'
p39
ag4
aa(lp40
S'Animals as Leaders'
p41
ag4
aa(lp42
S'Anna Calvi'
p43
ag4
aa(lp44
S'Antonin Dvorak'
p45
ag4
aa(lp46
S'Arcade Fire'
p47
ag4
aa(lp48
S'Arctic Monkeys'
p49
ag4
aa(lp50
S'Arcturus'
p51
ag4
aa(lp52
S'Arsonists'
p53
ag4
aa(lp54
S'Astor Piazzolla'
p55
ag4
aa(lp56
S'Audioslave'
p57
ag4
aa(lp58
S'Autechre'
p59
ag4
aa(lp60
S'Avenged Sevenfold'
p61
ag4
aa(lp62
S'Avishai Cohen'
p63
ag4
aa(lp64
S'Awa Band (feat. Tony Allen)'
p65
ag4
aa(lp66
S'Ayreon'
p67
ag4
aa(lp68
S'Babe Ruth'
p69
ag4
aa(lp70
S'Bathysphere'
p71
ag4
aa(lp72
S'Bebo Best & Super Lounge Orche'
p73
ag4
aa(lp74
S'Beck'
p75
ag4
aa(lp76
S'Belleruche'
p77
ag4
aa(lp78
S'Big Bad Voodoo Daddy'
p79
ag4
aa(lp80
S'Big Youth'
p81
ag4
aa(lp82
S'Bill Evans'
p83
ag4
aa(lp84
S'Billy Talent'
p85
ag4
aa(lp86
S'Bj\xc3\xb6rk'
p87
ag4
aa(lp88
S'Black Dub'
p89
ag4
aa(lp90
S'Black Sabbath'
p91
ag4
aa(lp92
S'Blackmill'
p93
ag4
aa(lp94
S"Blackmore's Night"
p95
ag4
aa(lp96
S'Blind Guardian'
p97
ag4
aa(lp98
S'Bloc Party'
p99
ag4
aa(lp100
S'Blur'
p101
ag4
aa(lp102
S'Boards of Canada'
p103
ag4
aa(lp104
S'Bob Dylan'
p105
ag4
aa(lp106
S'Bob Marley'
p107
ag4
aa(lp108
S'Bob Walsh'
p109
ag4
aa(lp110
S'Bolt Action Five'
p111
ag4
aa(lp112
S'Bon Iver'
p113
ag4
aa(lp114
S'Bonobo'
p115
ag4
aa(lp116
S'Border Crossing'
p117
ag4
aa(lp118
S'Boris Berman'
p119
ag4
aa(lp120
S'Boris Vian'
p121
ag4
aa(lp122
S'Brad Mehldau'
p123
ag4
aa(lp124
S'Bran Van 3000'
p125
ag4
aa(lp126
S'Brian Eno'
p127
ag4
aa(lp128
S'Buckethead / Travis Dickerson'
p129
ag4
aa(lp130
S'Buena Vista Social Club'
p131
ag4
aa(lp132
S'Cabaret Voltaire'
p133
ag4
aa(lp134
S'Camel'
p135
ag4
aa(lp136
S'Caracol'
p137
ag4
aa(lp138
S'Caravan'
p139
ag4
aa(lp140
S'Caravan Palace'
p141
ag4
aa(lp142
S'Carolina Liar'
p143
ag4
aa(lp144
S'Carptree'
p145
ag4
aa(lp146
S'Cat Stevens'
p147
ag4
aa(lp148
S'Charles Aznavour'
p149
ag4
aa(lp150
S'Charlie Dominici'
p151
ag4
aa(lp152
S'Chick Corea'
p153
ag4
aa(lp154
S'Chickenfoot'
p155
ag4
aa(lp156
S'Children of Bodom'
p157
ag4
aa(lp158
S'Chilly Gonzales'
p159
ag4
aa(lp160
S'Chinese Man'
p161
ag4
aa(lp162
S'Chocolate Milk'
p163
ag4
aa(lp164
S'Chopin'
p165
ag4
aa(lp166
S'Chronos Quartet'
p167
ag4
aa(lp168
S'Civil Twilight'
p169
ag4
aa(lp170
S'Claude Bolling'
p171
ag4
aa(lp172
S'Clint Mansell'
p173
ag4
aa(lp174
S'Club Des Belugas'
p175
ag4
aa(lp176
S'Coeur de Pirate'
p177
ag4
aa(lp178
S'Coldplay'
p179
ag4
aa(lp180
S'Connie Price & The Keystones'
p181
ag4
aa(lp182
S'Cream'
p183
ag4
aa(lp184
S'DJ Angola'
p185
ag4
aa(lp186
S'Daft Punk'
p187
ag4
aa(lp188
S'Damien Rice'
p189
ag4
aa(lp190
S'Daniel Lanois'
p191
ag4
aa(lp192
S'Danny Elfman'
p193
ag4
aa(lp194
S'Dark Tranquillity'
p195
ag4
aa(lp196
S'Dave Gahan'
p197
ag4
aa(lp198
S'David Bowie'
p199
ag4
aa(lp200
S'David Gilmour'
p201
ag4
aa(lp202
S'De-Phazz'
p203
ag4
aa(lp204
S'Dead Can Dance'
p205
ag4
aa(lp206
S'Dead Soul Tribe'
p207
ag4
aa(lp208
S'Deadmau5'
p209
ag4
aa(lp210
S'Death'
p211
ag4
aa(lp212
S'Death Cab for Cutie'
p213
ag4
aa(lp214
S'Deep Purple'
p215
ag4
aa(lp216
S'Def Leppard'
p217
ag4
aa(lp218
S'Def Leppard\x00'
p219
ag4
aa(lp220
S'Deftones'
p221
ag4
aa(lp222
S'Delerium'
p223
ag4
aa(lp224
S'Demon Boyz'
p225
ag4
aa(lp226
S'Depeche Mode'
p227
ag4
aa(lp228
S'Deus'
p229
ag4
aa(lp230
S'Devin Townsend'
p231
ag4
aa(lp232
S'Dimmu Borgir'
p233
ag4
aa(lp234
S'Dio'
p235
ag4
aa(lp236
S'Dire Straits'
p237
ag4
aa(lp238
S"Dope Noir Presents Waldeck' Gramophone Vol 1"
p239
ag4
aa(lp240
S'Dream Theater'
p241
ag4
aa(lp242
S'Dred Scott'
p243
ag4
aa(lp244
S'Dublex Inc.'
p245
ag4
aa(lp246
S'Duke Ellington and His Orchestra'
p247
ag4
aa(lp248
S'Dynamoe'
p249
ag4
aa(lp250
S'Eagles'
p251
ag4
aa(lp252
S'Eighth From The Egg'
p253
ag4
aa(lp254
S'El Ten Eleven'
p255
ag4
aa(lp256
S'Electric Light Orchestra'
p257
ag4
aa(lp258
S'Elfon\xc3\xada'
p259
ag4
aa(lp260
S'Eloy'
p261
ag4
aa(lp262
S'Emerson, Lake and Palmer'
p263
ag4
aa(lp264
S'Emily Haines'
p265
ag4
aa(lp266
S'Eminem'
p267
ag4
aa(lp268
S'Ennio Morricone'
p269
ag4
aa(lp270
S'Enya'
p271
ag4
aa(lp272
S'Eric Clapton'
p273
ag4
aa(lp274
S'Erik Truffaz'
p275
ag4
aa(lp276
S'Eskmo'
p277
ag4
aa(lp278
S'Evanescence'
p279
ag4
aa(lp280
S'Faith No More'
p281
ag4
aa(lp282
S'Fever Ray'
p283
ag4
aa(lp284
S'Fish'
p285
ag4
aa(lp286
S'Foo Fighters'
p287
ag4
aa(lp288
S'Foreigner'
p289
ag4
aa(lp290
S'Frank Zappa'
p291
ag4
aa(lp292
S'Frankie Goes to Hollywood'
p293
ag4
aa(lp294
S'Franz Ferdinand'
p295
ag4
aa(lp296
S'Freddie Hubbard'
p297
ag4
aa(lp298
S'Free The Robots'
p299
ag4
aa(lp300
S'Free the Robots'
p301
ag4
aa(lp302
S'Freedom Call'
p303
ag4
aa(lp304
S'Future Loop Foundation'
p305
ag4
aa(lp306
S'Future Sound of London'
p307
ag4
aa(lp308
S'Galaxie'
p309
ag4
aa(lp310
S'Gamma Ray'
p311
ag4
aa(lp312
S'Garbage'
p313
ag4
aa(lp314
S'Gazpacho'
p315
ag4
aa(lp316
S'Gecko Turner'
p317
ag4
aa(lp318
S'Genesis'
p319
ag4
aa(lp320
S'Gentle Giant'
p321
ag4
aa(lp322
S'George Harrison'
p323
ag4
aa(lp324
S'Godsmack'
p325
ag4
aa(lp326
S'Godspeed You Black Emperor!'
p327
ag4
aa(lp328
S'Goldfrapp'
p329
ag4
aa(lp330
S'Gorillaz'
p331
ag4
aa(lp332
S'Gotan Project'
p333
ag4
aa(lp334
S'Green Day'
p335
ag4
aa(lp336
S"Guns N' Roses"
p337
ag4
aa(lp338
S'Gwen Stefani'
p339
ag4
aa(lp340
S'Hadouken'
p341
ag4
aa(lp342
S'Hadouken!'
p343
ag4
aa(lp344
S'Half Moon Run'
p345
ag4
aa(lp346
S'Hammerfall'
p347
ag4
aa(lp348
S'Handpolished'
p349
ag4
aa(lp350
S'Hannah Cohen'
p351
ag4
aa(lp352
S'Hans Zimmer'
p353
ag4
aa(lp354
S'Hawkwind'
p355
ag4
aa(lp356
S'Helloween'
p357
ag4
aa(lp358
S'Herbie Hancock'
p359
ag4
aa(lp360
S'Howard Shore'
p361
ag4
aa(lp362
S'IQ'
p363
ag4
aa(lp364
S'Iced Earth'
p365
ag4
aa(lp366
S'Iggy Pop'
p367
ag4
aa(lp368
S'In Flames'
p369
ag4
aa(lp370
S'Incubus'
p371
ag4
aa(lp372
S'Infected Mushroom'
p373
ag4
aa(lp374
S'Infected Mushroom Feat. Jonathan Davis'
p375
ag4
aa(lp376
S'Infected Mushroom Feat. Perry Farrell'
p377
ag4
aa(lp378
S'Iron Maiden'
p379
ag4
aa(lp380
S'Jack Johnson'
p381
ag4
aa(lp382
S'Jaco Pastorius'
p383
ag4
aa(lp384
S'Jag Panzer'
p385
ag4
aa(lp386
S'Jamiroquai'
p387
ag4
aa(lp388
S'Jazz at the Pawnshop'
p389
ag4
aa(lp390
S'Jean Leclerc'
p391
ag4
aa(lp392
S'Jean Leloup'
p393
ag4
aa(lp394
S'Jean Luc Ponty'
p395
ag4
aa(lp396
S'Jeff Beck'
p397
ag4
aa(lp398
S'Jeff Beck Group'
p399
ag4
aa(lp400
S'Jesse Rose'
p401
ag4
aa(lp402
S'Jethro Tull'
p403
ag4
aa(lp404
S'Joe Satriani'
p405
ag4
aa(lp406
S'Johann Pachelbel'
p407
ag4
aa(lp408
S'Johann Sebastian Bach'
p409
ag4
aa(lp410
S'John Coltrane'
p411
ag4
aa(lp412
S'John Lee Hooker'
p413
ag4
aa(lp414
S'John McLaughlin'
p415
ag4
aa(lp416
S'John Petrucci'
p417
ag4
aa(lp418
S'John Petrucci and Jordan Rudess'
p419
ag4
aa(lp420
S'Johnny Cash'
p421
ag4
aa(lp422
S'Joseph Arthur'
p423
ag4
aa(lp424
S'Journey'
p425
ag4
aa(lp426
S'Judas Priest'
p427
ag4
aa(lp428
S'Just Ice'
p429
ag4
aa(lp430
S'Kabir/The Quantic Soul Orchestra'
p431
ag4
aa(lp432
S'Kamelot'
p433
ag4
aa(lp434
S'Kansas'
p435
ag4
aa(lp436
S'Karkwa'
p437
ag4
aa(lp438
S'Kasabian'
p439
ag4
aa(lp440
S'Kataklysm'
p441
ag4
aa(lp442
S'Kenneth Bager'
p443
ag4
aa(lp444
S'Kevin Drew'
p445
ag4
aa(lp446
S'Kid Koala'
p447
ag4
aa(lp448
S'Killswitch Engage'
p449
ag4
aa(lp450
S'King Crimson'
p451
ag4
aa(lp452
S'Kings of Convenience'
p453
ag4
aa(lp454
S'Kormac'
p455
ag4
aa(lp456
S'Korn'
p457
ag4
aa(lp458
S'Kraftwerk'
p459
ag4
aa(lp460
S'Kronos Quartet'
p461
ag4
aa(lp462
S'LCD Soundsystem'
p463
ag4
aa(lp464
S'Lady Gaga'
p465
ag4
aa(lp466
S'Lady Gaga Feat. Beyonc\xc3\xa9'
p467
ag4
aa(lp468
S"Lady Gaga Feat. Colby O'Donis"
p469
ag4
aa(lp470
S'Lady Gaga Feat. Space Cowboy and Flo Rida'
p471
ag4
aa(lp472
S'Led Zeppelin'
p473
ag4
aa(lp474
S'Lenny Kravitz'
p475
ag4
aa(lp476
S'Leonard Cohen'
p477
ag4
aa(lp478
S'Les Colocs'
p479
ag4
aa(lp480
S'Lilly Allen'
p481
ag4
aa(lp482
S'Lily Allen'
p483
ag4
aa(lp484
S'Limp Bizkit'
p485
ag4
aa(lp486
S'Limp Bizkit Feat. Matt Pinfield / Limp Bizkit Feat. Les Claypool'
p487
ag4
aa(lp488
S'Limp Bizkit Feat. Method Man'
p489
ag4
aa(lp490
S'Limp Twins'
p491
ag4
aa(lp492
S'Linkin Park'
p493
ag4
aa(lp494
S'Liquid Tension Experiment'
p495
ag4
aa(lp496
S'Lisa Leblanc'
p497
ag4
aa(lp498
S'Little Miss Trinitron'
p499
ag4
aa(lp500
S'Lizz Wright'
p501
ag4
aa(lp502
S'London Philharmonic Orchestra'
p503
ag4
aa(lp504
S'Lords Of The Underground'
p505
ag4
aa(lp506
S'Loreena McKennitt'
p507
ag4
aa(lp508
S'Loz Contreras'
p509
ag4
aa(lp510
S'Luis Enriquez'
p511
ag4
aa(lp512
S'M'
ag4
aa(lp513
S'MGMT'
p514
ag4
aa(lp515
S'Madkap'
p516
ag4
aa(lp517
S'Madonna'
p518
ag4
aa(lp519
S'Maga Bo'
p520
ag4
aa(lp521
S'Magnetic Fields'
p522
ag4
aa(lp523
S'Mahavishnu Orchestra'
p524
ag4
aa(lp525
S'Malajube'
p526
ag4
aa(lp527
S'Manowar'
p528
ag4
aa(lp529
S'Marcin Wasilewski Trio'
p530
ag4
aa(lp531
S'Marillion'
p532
ag4
aa(lp533
S'Marilyn Manson'
p534
ag4
aa(lp535
S'Mark Knopfler'
p536
ag4
aa(lp537
S'Mark Rae Vs. Deadbeats'
p538
ag4
aa(lp539
S'Martha Wainwright'
p540
ag4
aa(lp541
S'Massive Attack'
p542
ag4
aa(lp543
S'Matthew Ryan'
p544
ag4
aa(lp545
S'Mazzy Star'
p546
ag4
aa(lp547
S'Megadeth'
p548
ag4
aa(lp549
S'Memphis May Fire'
p550
ag4
aa(lp551
S'Metal Gear Solid'
p552
ag4
aa(lp553
S'Metallica'
p554
ag4
aa(lp555
S'Metric'
p556
ag4
aa(lp557
S'Michael Bubl\xc3\xa9'
p558
ag4
aa(lp559
S'Microdisiacs'
p560
ag4
aa(lp561
S'Mike Oldfield'
p562
ag4
aa(lp563
S'Miles Davis'
p564
ag4
aa(lp565
S'Miles Davis and Gil Evans'
p566
ag4
aa(lp567
S'Misteur Valaire'
p568
ag4
aa(lp569
S'Moby'
p570
ag4
aa(lp571
S'Mogwai'
p572
ag4
aa(lp573
S'Molvaer, Nils Petter'
p574
ag4
aa(lp575
S'Mono'
p576
ag4
aa(lp577
S'Moonspell'
p578
ag4
aa(lp579
S'Morcheeba'
p580
ag4
aa(lp581
S'Mortiis'
p582
ag4
aa(lp583
S'Mot\xc3\xb6rhead'
p584
ag4
aa(lp585
S'Mr Scruff'
p586
ag4
aa(lp587
S'Mr. Bungle'
p588
ag4
aa(lp589
S'Mr. Scruff'
p590
ag4
aa(lp591
S'Mumford & Sons'
p592
ag4
aa(lp593
S'Mumford and Sons'
p594
ag4
aa(lp595
S"Mungo's Hifi Feat. Brother Culture"
p596
ag4
aa(lp597
S'Muse'
p598
ag4
aa(lp599
S'My Dying Bride'
p600
ag4
aa(lp601
S'Nickelback'
p602
ag4
aa(lp603
S'Nicolas Repac'
p604
ag4
aa(lp605
S'Nightwish'
p606
ag4
aa(lp607
S'Nils Petter Molv\xc3\xa6r'
p608
ag4
aa(lp609
S'Nina Simone'
p610
ag4
aa(lp611
S'Nine Inch Nails'
p612
ag4
aa(lp613
S'No Doubt'
p614
ag4
aa(lp615
S"Noel Gallagher's High Flying Birds"
p616
ag4
aa(lp617
S'Norah Jones'
p618
ag4
aa(lp619
S'Nostradameus'
p620
ag4
aa(lp621
S'Oasis'
p622
ag4
aa(lp623
S'Opeth'
p624
ag4
aa(lp625
S'Orpheus Chamber Orchestra'
p626
ag4
aa(lp627
S'Oscar Peterson'
p628
ag4
aa(lp629
S'Oscar Sulley & The Uhuru Dance Band'
p630
ag4
aa(lp631
S'Our Lady Peace'
p632
ag4
aa(lp633
S'Palov & Mishkin'
p634
ag4
aa(lp635
S'Pantera'
p636
ag4
aa(lp637
S'Papa Austin With The Great Peso'
p638
ag4
aa(lp639
S'Papa Roach'
p640
ag4
aa(lp641
S'Paradise Lost'
p642
ag4
aa(lp643
S'Parov Stelar'
p644
ag4
aa(lp645
S'Parov Stelar and Band'
p646
ag4
aa(lp647
S'Pat Metheny'
p648
ag4
aa(lp649
S'Patrick Watson'
p650
ag4
aa(lp651
S'Paul Oakenfold'
p652
ag4
aa(lp653
S'Pawa Up First'
p654
ag4
aa(lp655
S'Pearl Jam'
p656
ag4
aa(lp657
S'Pendulum'
p658
ag4
aa(lp659
S'Peter Gabriel'
p660
ag4
aa(lp661
S'Pharoah Sanders'
p662
ag4
aa(lp663
S'Phideaux'
p664
ag4
aa(lp665
S'Phil Collins'
p666
ag4
aa(lp667
S'Pink Floyd'
p668
ag4
aa(lp669
S'Plan B'
p670
ag4
aa(lp671
S'Plant, Robert and Alison Krauss'
p672
ag4
aa(lp673
S'Porcupine Tree'
p674
ag4
aa(lp675
S'Portico Quartet'
p676
ag4
aa(lp677
S'Portishead'
p678
ag4
aa(lp679
S'Prefuse 73'
p680
ag4
aa(lp681
S'Premiata Forneria Marconi'
p682
ag4
aa(lp683
S'Protest the Hero'
p684
ag4
aa(lp685
S'Public Enemy'
p686
ag4
aa(lp687
S'Puscifer'
p688
ag4
aa(lp689
S'Quantic'
p690
ag4
aa(lp691
S'Quantic & Mr. Scruff'
p692
ag4
aa(lp693
S'Quantic Soul Orchestra'
p694
ag4
aa(lp695
S'Queen'
p696
ag4
aa(lp697
S'Queensr\xc3\xbfche'
p698
ag4
aa(lp699
S'RJD2'
p700
ag4
aa(lp701
S'Radiohead'
p702
ag4
aa(lp703
S'Rage Against the Machine'
p704
ag4
aa(lp705
S'Rain Man'
p706
ag4
aa(lp707
S'Rainbow'
p708
ag4
aa(lp709
S'Rammstein'
p710
ag4
aa(lp711
S'Ratatat'
p712
ag4
aa(lp713
S'Ravel, Maurice'
p714
ag4
aa(lp715
S'Ray Charles'
p716
ag4
aa(lp717
S'Red Hot Chili Peppers'
p718
ag4
aa(lp719
S'Red Riding Hood'
p720
ag4
aa(lp721
S'Return to Forever'
p722
ag4
aa(lp723
S'Rhapsody'
p724
ag4
aa(lp725
S'Rheinberger'
p726
ag4
aa(lp727
S'Rick Wakeman'
p728
ag4
aa(lp729
S'Riverside'
p730
ag4
aa(lp731
S'RjD2'
p732
ag4
aa(lp733
S'Rjd2'
p734
ag4
aa(lp735
S'Rob Zombie'
p736
ag4
aa(lp737
S'Robert Plant'
p738
ag4
aa(lp739
S'Roger Waters'
p740
ag4
aa(lp741
S'Rolling Stones'
p742
ag4
aa(lp743
S'Rosie Brown'
p744
ag4
aa(lp745
S'Ruben Gonzalez'
p746
ag4
aa(lp747
S'Rush'
p748
ag4
aa(lp749
S'Sagot'
p750
ag4
aa(lp751
S'Santana'
p752
ag4
aa(lp753
S'Sarah McLachlan'
p754
ag4
aa(lp755
S'Sarah McLachlan Feat. Emmylou Harris'
p756
ag4
aa(lp757
S'Sarah Winton'
p758
ag4
aa(lp759
S'Scorpions'
p760
ag4
aa(lp761
S'Sepultura'
p762
ag4
aa(lp763
S'Sergei Rachmaninoff'
p764
ag4
aa(lp765
S'Serj Tankian'
p766
ag4
aa(lp767
S'Shadows Fall'
p768
ag4
aa(lp769
S'Shamen'
p770
ag4
aa(lp771
S'Shooglenifty'
p772
ag4
aa(lp773
S'Show & Ag'
p774
ag4
aa(lp775
S'Sigur R\xc3\xb3s'
p776
ag4
aa(lp777
S'Silje Nergaard'
p778
ag4
aa(lp779
S'Silversun Pickups'
p780
ag4
aa(lp781
S'Simon and Garfunkel'
p782
ag4
aa(lp783
S'Skalpel'
p784
ag4
aa(lp785
S'Skrillex'
p786
ag4
aa(lp787
S'Skunk Anansie'
p788
ag4
aa(lp789
S'Slayer'
p790
ag4
aa(lp791
S'Slipknot'
p792
ag4
aa(lp793
S'Solomon Burke'
p794
ag4
aa(lp795
S'Son Lux'
p796
ag4
aa(lp797
S'Sonic Youth'
p798
ag4
aa(lp799
S'Soul Ii Soul'
p800
ag4
aa(lp801
S'Soul Position'
p802
ag4
aa(lp803
S'Spaghetti Head'
p804
ag4
aa(lp805
S'Spanky Wilson & The Quantic Soul Orchestra'
p806
ag4
aa(lp807
S'Spocks Beard'
p808
ag4
aa(lp809
S'Spyro Gyra'
p810
ag4
aa(lp811
S'Squirrel Nut Zippers'
p812
ag4
aa(lp813
S'Stan Getz'
p814
ag4
aa(lp815
S'Stan Getz and the Oscar Peterson Trio'
p816
ag4
aa(lp817
S'Star One'
p818
ag4
aa(lp819
S'Stars'
p820
ag4
aa(lp821
S'Stereophonics'
p822
ag4
aa(lp823
S'Steve Hackett'
p824
ag4
aa(lp825
S'Steve Vai'
p826
ag4
aa(lp827
S'Steven Wilson'
p828
ag4
aa(lp829
S'Stevie Ray Vaughan'
p830
ag4
aa(lp831
S'Stevie Wonder'
p832
ag4
aa(lp833
S'Sting and the Police'
p834
ag4
aa(lp835
S'Stone Alliance'
p836
ag4
aa(lp837
S'Stream of Passion'
p838
ag4
aa(lp839
S'Sun Ra'
p840
ag4
aa(lp841
S'Supertramp'
p842
ag4
aa(lp843
S'Switchstance Recordings'
p844
ag4
aa(lp845
S'Symphony X'
p846
ag4
aa(lp847
S'System of a Down'
p848
ag4
aa(lp849
S'Tame Impala'
p850
ag4
aa(lp851
S'Tangerine Dream'
p852
ag4
aa(lp853
S'Tchaikovsky'
p854
ag4
aa(lp855
S'Tcha\xc3\xafkovsky'
p856
ag4
aa(lp857
S'Tears for Fears'
p858
ag4
aa(lp859
S'Tego Calder\xc3\xb3n'
p860
ag4
aa(lp861
S'The Alan Parsons Project'
p862
ag4
aa(lp863
S'The Atomic Fireballs'
p864
ag4
aa(lp865
S'The Beatles'
p866
ag4
aa(lp867
S'The Black Keys'
p868
ag4
aa(lp869
S'The Chemical Brothers'
p870
ag4
aa(lp871
S'The Cinematic Orchestra'
p872
ag4
aa(lp873
S'The Clash'
p874
ag4
aa(lp875
S'The Cranberries'
p876
ag4
aa(lp877
S'The Cure'
p878
ag4
aa(lp879
S'The Dears'
p880
ag4
aa(lp881
S'The Doors'
p882
ag4
aa(lp883
S'The Drums'
p884
ag4
aa(lp885
S'The Jesus and Mary Chain'
p886
ag4
aa(lp887
S'The Johannes Brahms'
p888
ag4
aa(lp889
S'The Killers'
p890
ag4
aa(lp891
S'The Knife'
p892
ag4
aa(lp893
S'The Limp Twins'
p894
ag4
aa(lp895
S'The Lonely Island'
p896
ag4
aa(lp897
S'The Lord of the Rings Soundtrack'
p898
ag4
aa(lp899
S'The Lost Fingers'
p900
ag4
aa(lp901
S'The Mars Volta'
p902
ag4
aa(lp903
S'The Offspring'
p904
ag4
aa(lp905
S'The Ogyatanaa Show Band'
p906
ag4
aa(lp907
S'The Orb Featuring David Gilmour'
p908
ag4
aa(lp909
S'The Peddlers'
p910
ag4
aa(lp911
S'The Prodigy'
p912
ag4
aa(lp913
S'The Quantic Soul Orchestra'
p914
ag4
aa(lp915
S'The Radio Dept.'
p916
ag4
aa(lp917
S'The Roots'
p918
ag4
aa(lp919
S'The Sheepdogs'
p920
ag4
aa(lp921
S'The Stills-Young Band'
p922
ag4
aa(lp923
S'The Strokes'
p924
ag4
aa(lp925
S'The Tangent'
p926
ag4
aa(lp927
S'The Tragically Hip'
p928
ag4
aa(lp929
S'The Verve'
p930
ag4
aa(lp931
S'The Whip'
p932
ag4
aa(lp933
S'The White Stripes'
p934
ag4
aa(lp935
S'The Xx'
p936
ag4
aa(lp937
S'Therion'
p938
ag4
aa(lp939
S'Thievery Corporation'
p940
ag4
aa(lp941
S'Thunderdome'
p942
ag4
aa(lp943
S'Tiamat'
p944
ag4
aa(lp945
S'Timbaland'
p946
ag4
aa(lp947
S"Timbaland Feat. Attitude, Bran'nu and D.O.E."
p948
ag4
aa(lp949
S"Timbaland Feat. Bran' Nu"
p950
ag4
aa(lp951
S'Timbaland Feat. Chad Kroeger and Sebastian'
p952
ag4
aa(lp953
S'Timbaland Feat. Daughtry'
p954
ag4
aa(lp955
S'Timbaland Feat. Drake'
p956
ag4
aa(lp957
S'Timbaland Feat. Jet'
p958
ag4
aa(lp959
S'Timbaland Feat. Jojo'
p960
ag4
aa(lp961
S'Timbaland Feat. Justin Timberlake'
p962
ag4
aa(lp963
S'Timbaland Feat. Katy Perry'
p964
ag4
aa(lp965
S'Timbaland Feat. Keri Hilson and D.O.E.'
p966
ag4
aa(lp967
S'Timbaland Feat. Miley Cyrus'
p968
ag4
aa(lp969
S'Timbaland Feat. Nelly Furtado and Soshy'
p970
ag4
aa(lp971
S'Timbaland Feat. Onerepublic'
p972
ag4
aa(lp973
S'Timbaland Feat. Sebastian and Esthero'
p974
ag4
aa(lp975
S'Timbaland Feat. the Fray and Esthero'
p976
ag4
aa(lp977
S'Tipper'
p978
ag4
aa(lp979
S'Tom Waits'
p980
ag4
aa(lp981
S'Tool'
p982
ag4
aa(lp983
S'Tool Feat. Henry Rollins'
p984
ag4
aa(lp985
S'Toto'
p986
ag4
aa(lp987
S'Tracy Chapman'
p988
ag4
aa(lp989
S'Tycho'
p990
ag4
aa(lp991
S'U2'
p992
ag4
aa(lp993
S'Ultramagnetic Mcs'
p994
ag4
aa(lp995
S'Ulver'
p996
ag4
aa(lp997
S'Underworld'
p998
ag4
aa(lp999
S'United Future Organisation'
p1000
ag4
aa(lp1001
S'Unknown Artist'
p1002
ag4
aa(lp1003
S'Uriah Heep'
p1004
ag4
aa(lp1005
S'Utd'
p1006
ag4
aa(lp1007
S'VA'
p1008
ag4
aa(lp1009
S'Van Der Graaf Generator'
p1010
ag4
aa(lp1011
S'Vangelis'
p1012
ag4
aa(lp1013
S'Various Artists'
p1014
ag4
aa(lp1015
S'Victor Malloy'
p1016
ag4
aa(lp1017
S'Visit Venus'
p1018
ag4
aa(lp1019
S'Vitalic'
p1020
ag4
aa(lp1021
S'Vivaldi'
p1022
ag4
aa(lp1023
S'Waldeck'
p1024
ag4
aa(lp1025
S'Wes Montgomery'
p1026
ag4
aa(lp1027
S'Whitesnake'
p1028
ag4
aa(lp1029
S'Within Temptation'
p1030
ag4
aa(lp1031
S'Within Temptation and the Metropole Orchestra'
p1032
ag4
aa(lp1033
S'Yes'
p1034
ag4
aa(lp1035
S'Zero 7'
p1036
ag4
aa(lp1037
S'alt-J'
p1038
ag4
aa(lp1039
S'parov stelar'
p1040
ag4
aa(lp1041
S'quantic'
p1042
ag4
aa(lp1043
S'the quantic soul orchestra'
p1044
ag4
aa(lp1045
S'waldeck'
p1046
ag4
aa.