(lp1
(lp2
S'2day & 2moro'
p3
aS'../art/nocover1.jpg'
p4
aa(lp5
S'3'
aS'/media/dat/mus//Three/The End Is Begun/cover.jpg'
p6
aa(lp7
S'3 Mins (feat. Mark Murphy)'
p8
ag4
aa(lp9
S'A Fine Frenzy'
p10
aS'/media/dat/mus//A Fine Frenzy/Bomb In A Birdcage/cover.jpg'
p11
aa(lp12
S'ABBA'
p13
aS'/media/dat/mus//ABBA/2008-ABBA-Bonus Tracks-FLAC/cover.jpg'
p14
aa(lp15
S'AC/DC'
p16
aS'/media/dat/mus//ACDC/ACDC - Black Ice 2008/cover.jpg'
p17
aa(lp18
S'Aceyalone and Rjd2'
p19
ag4
aa(lp20
S'After Forever'
p21
aS'/media/dat/mus//Ayreon/Ayreon - Singles 1995 - 2005/cover.jpg'
p22
aa(lp23
S'Agua de Annique'
p24
aS'/media/dat/mus//Anneke van Giersbergen & Agua de Annique - In Your Room/cover.jpg'
p25
aa(lp26
S'Akido'
p27
aS'/media/dat/mus//Akido/cover.jpg'
p28
aa(lp29
S'Alanis Morissette'
p30
aS'/media/dat/mus//Alanis Morissette/cover.jpg'
p31
aa(lp32
S'All That Remains'
p33
aS'/media/dat/mus//All that remains/cover.jpg'
p34
aa(lp35
S'Ambeon'
p36
aS'/media/dat/mus//Ayreon/Ayreon - Ayreonauts Only 2000/cover.jpg'
p37
aa(lp38
S'Amon Amarth'
p39
aS'/media/dat/mus//Amon Amarth/Fate Of Norns/cover.jpg'
p40
aa(lp41
S'Amon Tobin'
p42
aS'/media/dat/mus//Amon Tobin/Foley Room/cover.jpg'
p43
aa(lp44
S'Anathema'
p45
aS'/media/dat/mus//Anathema/Anathema - 1993 - Serenades/cover.jpg'
p46
aa(lp47
S'Andreas Juffinger'
p48
aS'/media/dat/mus//J.G. Rheinberger/cover.jpg'
p49
aa(lp50
S'Angelo Badalamenti'
p51
aS'/media/dat/mus//Angelo Badalamenti/cover.jpg'
p52
aa(lp53
S'Angra'
p54
aS'/media/dat/mus//Angra/1996 - Holy Land/cover.jpg'
p55
aa(lp56
S'Animals as Leaders'
p57
aS'/media/dat/mus//Animals as Leaders - Weightless/cover.jpg'
p58
aa(lp59
S'Anna Calvi'
p60
aS'/media/dat/mus//Anna Calvi/cover.jpg'
p61
aa(lp62
S'Antonin Dvorak'
p63
ag4
aa(lp64
S'Arcade Fire'
p65
aS'/media/dat/mus//Arcade Fire/Neon Bible/cover.jpg'
p66
aa(lp67
S'Arctic Monkeys'
p68
aS'/media/dat/mus//Arctic Monkeys/FWN/cover.jpg'
p69
aa(lp70
S'Arcturus'
p71
aS'/media/dat/mus//Arcturus/La masquarade Infernale/cover.jpg'
p72
aa(lp73
S'Arsonists'
p74
ag4
aa(lp75
S'Astor Piazzolla'
p76
aS'/media/dat/mus//Astor Piazolla/Piazzolla and Kronos Quartett - Five Tango Sensations/cover.jpg'
p77
aa(lp78
S'Audioslave'
p79
aS'/media/dat/mus//Audioslave/Audioslave/cover.jpg'
p80
aa(lp81
S'Autechre'
p82
aS'/media/dat/mus//Autechre/Quaristice/cover.jpg'
p83
aa(lp84
S'Avenged Sevenfold'
p85
aS'/media/dat/mus//Avenged Sevenfold/[2003] Waking the Fallen/cover.jpg'
p86
aa(lp87
S'Avishai Cohen'
p88
aS'/media/dat/mus//Avishai Cohen/Continuo/cover.jpg'
p89
aa(lp90
S'Awa Band (feat. Tony Allen)'
p91
ag4
aa(lp92
S'Ayreon'
p93
aS'/media/dat/mus//Ayreon/Ayreon - The Final Experiment 1995 - 2005/.folder.png'
p94
aa(lp95
S'Babe Ruth'
p96
aS'/media/dat/mus//Babe Ruth/First Base/.folder.png'
p97
aa(lp98
S'Bathysphere'
p99
ag4
aa(lp100
S'Bebo Best & Super Lounge Orche'
p101
ag4
aa(lp102
S'Beck'
p103
aS'/media/dat/mus//Beck/1999 - Midnite Vultures/cover.jpg'
p104
aa(lp105
S'Belleruche'
p106
aS'/media/dat/mus//Belleruche/2007 - Turntable Soul Music/cover.jpg'
p107
aa(lp108
S'Big Bad Voodoo Daddy'
p109
ag4
aa(lp110
S'Big Youth'
p111
ag4
aa(lp112
S'Bill Evans'
p113
aS'/media/dat/mus//Bill Evans/Sunday at the Village Vanguard-1961/cover.jpg'
p114
aa(lp115
S'Billy Talent'
p116
aS'/media/dat/mus//Billy Talent/Billy Talent III/cover.jpg'
p117
aa(lp118
S'Bj\xc3\xb6rk'
p119
aS'/media/dat/mus//Bjork/Post/cover.jpg'
p120
aa(lp121
S'Black Dub'
p122
aS'/media/dat/mus//Black Dub/cover.jpg'
p123
aa(lp124
S'Black Sabbath'
p125
aS'/media/dat/mus//Black Sabbath/1971 Master Of Reality/cover.jpg'
p126
aa(lp127
S'Blackmill'
p128
aS'/media/dat/mus//Blackmill/2011 - Miracle/cover.jpg'
p129
aa(lp130
S"Blackmore's Night"
p131
aS'/media/dat/mus//Blackmores Night/Ghost of a Rose/cover.jpg'
p132
aa(lp133
S'Blind Guardian'
p134
aS'/media/dat/mus//Blind Guardian/Imaginations From The Other Side/cover.jpg'
p135
aa(lp136
S'Bloc Party'
p137
aS'/media/dat/mus//Hadouken!/EPs/(2007) Not Here To Please You (Mixtape)/cover.jpg'
p138
aa(lp139
S'Blur'
p140
aS'/media/dat/mus//Blur/Leisure/cover.jpg'
p141
aa(lp142
S'Boards of Canada'
p143
aS'/media/dat/mus//Boards of Canada/Twoism/cover.jpg'
p144
aa(lp145
S'Bob Dylan'
p146
aS'/media/dat/mus//Bob Dylan/Blonde On Blonde/Disc 2/cover.jpg'
p147
aa(lp148
S'Bob Marley'
p149
aS'/media/dat/mus//Bob Marley/CD1/cover.jpg'
p150
aa(lp151
S'Bob Walsh'
p152
aS'/media/dat/mus//Bob Walsh/cover.jpg'
p153
aa(lp154
S'Bolt Action Five'
p155
aS'/media/dat/mus//Hadouken!/EPs/(2007) Not Here To Please You (Mixtape)/cover.jpg'
p156
aa(lp157
S'Bon Iver'
p158
aS'/media/dat/mus//Bon Iver/(2007) For Emma, Forever Ago/cover.jpg'
p159
aa(lp160
S'Bonobo'
p161
aS'/media/dat/mus//Bonobo/Days to come/cover.jpg'
p162
aa(lp163
S'Border Crossing'
p164
ag4
aa(lp165
S'Boris Berman'
p166
aS'/media/dat/mus//Prokofiev - Complete Piano Music/cover.jpg'
p167
aa(lp168
S'Boris Vian'
p169
aS'/media/dat/mus//Boris Vian/cover.jpg'
p170
aa(lp171
S'Brad Mehldau'
p172
aS'/media/dat/mus//Brad Melhdau/Anything Goes/cover.jpg'
p173
aa(lp174
S'Bran Van 3000'
p175
aS'/media/dat/mus//Bran Van 3000 - Discosis/cover.jpg'
p176
aa(lp177
S'Brian Eno'
p178
aS'/media/dat/mus//Brian Eno & Harold Budd/cover.jpg'
p179
aa(lp180
S'Buckethead / Travis Dickerson'
p181
aS'/media/dat/mus//Buckethead/Chicken Noodles II/cover.jpg'
p182
aa(lp183
S'Buena Vista Social Club'
p184
aS'/media/dat/mus//Buena Vista Social Club/Buena Vista Social Club - At Carnegie Hall (Disc 1) [2008] [FLAC]/cover.jpg'
p185
aa(lp186
S'Cabaret Voltaire'
p187
aS'/media/dat/mus//Cabaret Voltaire/Technology/cover.jpg'
p188
aa(lp189
S'Camel'
p190
aS'/media/dat/mus//Camel/(1991) Dust And Dreams/cover.jpg'
p191
aa(lp192
S'Caracol'
p193
aS"/media/dat/mus//Caracol/Caracol - L'Arbre Aux Parfums (2008) [FLAC] - insinuendo/cover.jpg"
p194
aa(lp195
S'Caravan'
p196
aS'/media/dat/mus//Caravan/In The Land Of Grey And Pink/cover.jpg'
p197
aa(lp198
S'Caravan Palace'
p199
aS'/media/dat/mus//Caravan Palace (2009)/cover.jpg'
p200
aa(lp201
S'Carolina Liar'
p202
aS'/media/dat/mus//Carolina Liar - Coming to term/cover.jpg'
p203
aa(lp204
S'Carptree'
p205
aS'/media/dat/mus//Carptree/Carptree - 2003 - Superhero [256]/cover.jpg'
p206
aa(lp207
S'Cat Stevens'
p208
aS'/media/dat/mus//Cat Stevens/cover.jpg'
p209
aa(lp210
S'Charles Aznavour'
p211
aS'/media/dat/mus//Charles Aznavour/cover.jpg'
p212
aa(lp213
S'Charlie Dominici'
p214
aS'/media/dat/mus//Charlie Dominici/Charlie Dominici - O3 A Trilogy - Part One/cover.jpg'
p215
aa(lp216
S'Chick Corea'
p217
aS'/media/dat/mus//Chick Corea/My Spanish Heart/.folder.png'
p218
aa(lp219
S'Chickenfoot'
p220
aS'/media/dat/mus//Chickenfoot/Chickenfoot - 2009 - Chickenfoot/cover.jpg'
p221
aa(lp222
S'Children of Bodom'
p223
aS'/media/dat/mus//Children Of Bodom/[1999] Tokyo Warhearts/cover.jpg'
p224
aa(lp225
S'Chilly Gonzales'
p226
aS'/media/dat/mus//Chilly Gonzales - Ivory Tower/cover.png'
p227
aa(lp228
S'Chinese Man'
p229
aS'/media/dat/mus//Chinese Man/2007 - The Groove Sessions/cover.jpg'
p230
aa(lp231
S'Chocolate Milk'
p232
ag4
aa(lp233
S'Chopin'
p234
aS'/media/dat/mus//Chopin/Polonaises (Maurizio Pollini)/cover.jpg'
p235
aa(lp236
S'Chronos Quartet'
p237
aS'/media/dat/mus//Kronos Quartet/Pieces of Africa/cover.jpg'
p238
aa(lp239
S'Civil Twilight'
p240
aS'/media/dat/mus//Civil Twilight/Civil Twilight - Civil Twilight (2009)/cover.jpg'
p241
aa(lp242
S'Claude Bolling'
p243
aS'/media/dat/mus//Bolling/Bolling & Zukerman - Suite for Violin & Jazz Piano/cover.jpg'
p244
aa(lp245
S'Clint Mansell'
p246
aS'/media/dat/mus//Clint Mansell/The Fountain OST/cover.jpg'
p247
aa(lp248
S'Club Des Belugas'
p249
aS'/media/dat/mus//Club Des Belugas - Swop (2008)/cover.jpg'
p250
aa(lp251
S'Coeur de Pirate'
p252
aS'/media/dat/mus//Coeur de pirate/cover.jpg'
p253
aa(lp254
S'Coldplay'
p255
aS'/media/dat/mus//Coldplay/Mylo Xyloto 24bit 96KHz/cover.jpg'
p256
aa(lp257
S'Connie Price & The Keystones'
p258
ag4
aa(lp259
S'Cream'
p260
aS'/media/dat/mus//Cream/Wheels Of Fire/CD1-InTheStudio/cover.jpg'
p261
aa(lp262
S'DJ Angola'
p263
ag4
aa(lp264
S'Daft Punk'
p265
aS'/media/dat/mus//Daft Punk/1997 - Alive/cover.jpg'
p266
aa(lp267
S'Damien Rice'
p268
aS'/media/dat/mus//Damian Rice/9/cover.jpg'
p269
aa(lp270
S'Daniel Lanois'
p271
aS'/media/dat/mus//Daniel Lanois/Belladonna (2005)/cover.jpg'
p272
aa(lp273
S'Danny Elfman'
p274
aS'/media/dat/mus//Danny Elfman - Music For A Darkened Theatre/CD1/cover.jpg'
p275
aa(lp276
S'Dark Tranquillity'
p277
aS'/media/dat/mus//Dark Tranquillity/(1993) Skydancer/cover.bmp'
p278
aa(lp279
S'Dave Gahan'
p280
aS'/media/dat/mus//Dave Gahan/Paper Monsters/cover.jpg'
p281
aa(lp282
S'David Bowie'
p283
aS'/media/dat/mus//David Bowie/The Singles collection/Disc 2/cover.jpg'
p284
aa(lp285
S'David Gilmour'
p286
aS'/media/dat/mus//David Gilmour/About Face/David Gilmour - About Face -/cover.jpg'
p287
aa(lp288
S'De-Phazz'
p289
aS'/media/dat/mus//De-Phazz/DE-PHAZZ - Godsdog 2CD 2002/CD1/cover.jpg'
p290
aa(lp291
S'Dead Can Dance'
p292
aS"/media/dat/mus//Dead Can Dance/The Serpent's Egg/cover.jpg"
p293
aa(lp294
S'Dead Soul Tribe'
p295
aS'/media/dat/mus//DeadSoul Tribe/Lullaby for the Devil [Pentrio]/cover.jpg'
p296
aa(lp297
S'Deadmau5'
p298
aS'/media/dat/mus//Deadmau5/Deadmau5 - 2009 - For Lack of a Better Name/cover.jpg'
p299
aa(lp300
S'Death'
p301
aS'/media/dat/mus//Death/Human/cover.jpg'
p302
aa(lp303
S'Death Cab for Cutie'
p304
aS'/media/dat/mus//Death Cab For Cutie/Transatlanticism/cover.jpg'
p305
aa(lp306
S'Deep Purple'
p307
aS'/media/dat/mus//Deep Purple/In Rock/cover.jpg'
p308
aa(lp309
S'Def Leppard'
p310
aS'/media/dat/mus//Def Leppard/Def Leppard - Hysteria 1987/cover.jpg'
p311
aa(lp312
S'Def Leppard\x00'
p313
aS'/media/dat/mus//Def Leppard/Def Leppard - Euphoria 1999/cover.jpg'
p314
aa(lp315
S'Deftones'
p316
aS'/media/dat/mus//Deftones/White Pony/cover.jpg'
p317
aa(lp318
S'Delerium'
p319
aS'/media/dat/mus//Delerium - Odyssey/Delerium - Odyssey - The Remix Collection CD2/.jpeg'
p320
aa(lp321
S'Demon Boyz'
p322
ag4
aa(lp323
S'Depeche Mode'
p324
aS'/media/dat/mus//Depeche Mode/Depeche Mode - Wrong (2009)/cover.jpg'
p325
aa(lp326
S'Deus'
p327
aS'/media/dat/mus//Deus/1996 dEUS - In A Bar, Under The Sea/.png'
p328
aa(lp329
S'Devin Townsend'
p330
aS'/media/dat/mus//Devin Townsend/Accelerated Evolution/Accelerated Evolution/cover.jpg'
p331
aa(lp332
S'Dimmu Borgir'
p333
aS'/media/dat/mus//Dimmu Borgir/Enthrone Darkness Triumphant/cover.jpg'
p334
aa(lp335
S'Dio'
p336
aS'/media/dat/mus//Dio/Holy Diver Live/.folder.png'
p337
aa(lp338
S'Dire Straits'
p339
aS'/media/dat/mus//Dire Straits/Dire Straits - Making Movies [Remastered]/Dire Straits - Making Movies [Remastered]/cover.jpg'
p340
aa(lp341
S"Dope Noir Presents Waldeck' Gramophone Vol 1"
p342
ag4
aa(lp343
S'Dream Theater'
p344
aS'/media/dat/mus//Dream Theater/Dream Theater - A Dramatic Turn Of Events (2011) [EAC-FLAC]/cover.jpg'
p345
aa(lp346
S'Dred Scott'
p347
ag4
aa(lp348
S'Dublex Inc.'
p349
ag4
aa(lp350
S'Duke Ellington and His Orchestra'
p351
aS'/media/dat/mus//Duke Ellington/Soul Call/cover.jpg'
p352
aa(lp353
S'Dynamoe'
p354
ag4
aa(lp355
S'Eagles'
p356
aS'/media/dat/mus//Eagles/Hell Freezes Over/cover.jpg'
p357
aa(lp358
S'Eighth From The Egg'
p359
ag4
aa(lp360
S'El Ten Eleven'
p361
aS'/media/dat/mus//El Ten Eleven/2008 - These Promises Are Being Videotaped/cover.jpg'
p362
aa(lp363
S'Electric Light Orchestra'
p364
aS'/media/dat/mus//Electric Light Orchestra/Flashback/CD 2/cover.jpg'
p365
aa(lp366
S'Elfon\xc3\xada'
p367
aS'/media/dat/mus//Elfonia/Elfonia - This Sonic Landscape 2005/cover.jpg'
p368
aa(lp369
S'Eloy'
p370
aS'/media/dat/mus//Eloy/Planets/.folder.png'
p371
aa(lp372
S'Emerson, Lake and Palmer'
p373
aS'/media/dat/mus//Emerson, Lake & Palmer/Tarkus/.folder.png'
p374
aa(lp375
S'Emily Haines'
p376
aS'/media/dat/mus//Emily Haines & The Soft Skeleton/Emily Haines - Cut In Half And Also Double/cover.jpg'
p377
aa(lp378
S'Eminem'
p379
aS'/media/dat/mus//Eminem/cover.jpg'
p380
aa(lp381
S'Ennio Morricone'
p382
aS'/media/dat/mus//Ennio Morricone - Super Gold Edition/CD05/cover.jpg'
p383
aa(lp384
S'Enya'
p385
aS'/media/dat/mus//Enya - And Winter Came/Enya - And Winter Came/cover.jpg'
p386
aa(lp387
S'Eric Clapton'
p388
aS'/media/dat/mus//Eric Clapton/Pilgrim/cover.jpg'
p389
aa(lp390
S'Erik Truffaz'
p391
ag4
aa(lp392
S'Eskmo'
p393
aS'/media/dat/mus//Eskmo/cover.jpg'
p394
aa(lp395
S'Evanescence'
p396
aS"/media/dat/mus//Evanescence/2004 - Everybody's Fool/cover.jpg"
p397
aa(lp398
S'Faith No More'
p399
aS'/media/dat/mus//Faith No More/Disc 2 (unreleased, demos and live)/cover.jpg'
p400
aa(lp401
S'Fever Ray'
p402
aS'/media/dat/mus//Fever Ray/cover.jpg'
p403
aa(lp404
S'Fish'
p405
aS'/media/dat/mus//Fish/Fish - 1999 - Raingods With Zippos/cover.jpg'
p406
aa(lp407
S'Foo Fighters'
p408
aS'/media/dat/mus//Foo Fighters/Echoes, Silence, Patience And Grace/cover.jpg'
p409
aa(lp410
S'Foreigner'
p411
aS"/media/dat/mus//Foreigner - Can't Slow Down/Disc 2 (The Remixes)/cover.jpg"
p412
aa(lp413
S'Frank Zappa'
p414
aS'/media/dat/mus//Frank Zappa/The Best Band You Never Heard in Your Life/CD1/cover.jpg'
p415
aa(lp416
S'Frankie Goes to Hollywood'
p417
aS'/media/dat/mus//Frankie Goes To Hollywood/Welcome To The Pleasuredome/cover.jpg'
p418
aa(lp419
S'Franz Ferdinand'
p420
aS'/media/dat/mus//Franz Ferdinand/Franz Ferdinand/cover.jpg'
p421
aa(lp422
S'Freddie Hubbard'
p423
aS'/media/dat/mus//Freddie Hubbard/Red Clay/cover.jpg'
p424
aa(lp425
S'Free The Robots'
p426
aS'/media/dat/mus//Free the robots/Free The Robots - Free The Robots EP/Free The Robots - Free The Robots (2007)/cover.jpg'
p427
aa(lp428
S'Free the Robots'
p429
aS'/media/dat/mus//Free the robots/Free the Robots - The Prototype/cover.jpg'
p430
aa(lp431
S'Freedom Call'
p432
aS'/media/dat/mus//Freedom Call/Dimensions/cover.jpg'
p433
aa(lp434
S'Future Loop Foundation'
p435
ag4
aa(lp436
S'Future Sound of London'
p437
aS'/media/dat/mus//Future Sound Of London/FSOL - From The Archives Volumes 1-4 (FLAC-EAC-CUE)/FSOL - From the Archives Volume 2 (FLAC-EAC-CUE)/cover.jpg'
p438
aa(lp439
S'Galaxie'
p440
aS'/media/dat/mus//Galaxie/Tigre et Diesel/cover.jpg'
p441
aa(lp442
S'Gamma Ray'
p443
aS'/media/dat/mus//Gamma Ray/1999_-_Power_Plant/1999 - Power Plant/cover.jpg'
p444
aa(lp445
S'Garbage'
p446
aS'/media/dat/mus//Garbage - Absolute/Part 1/cover.jpg'
p447
aa(lp448
S'Gazpacho'
p449
aS'/media/dat/mus//Gazpacho/Gazpacho - Night/cover.jpg'
p450
aa(lp451
S'Gecko Turner'
p452
ag4
aa(lp453
S'Genesis'
p454
aS'/media/dat/mus//Genesis/The Lamb Lies On Broadway/cover.jpg'
p455
aa(lp456
S'Gentle Giant'
p457
aS'/media/dat/mus//Gentle Giant/cover.jpg'
p458
aa(lp459
S'George Harrison'
p460
aS'/media/dat/mus//George Harrison/cover.jpg'
p461
aa(lp462
S'God Is An Astronaut'
p463
aS'/media/dat/mus//God Is an Astronaut - Discography [FLAC]/2007 - Far from Refuge (Japanese Release) [FLAC]/cover.jpg'
p464
aa(lp465
S'Godsmack'
p466
aS'/media/dat/mus//Godsmack/Awake/cover.jpg'
p467
aa(lp468
S'Godspeed You Black Emperor!'
p469
aS'/media/dat/mus//Godspeed you Black Emperor/Lift Your Skinny Fists Like Antennas To Heaven/cover.jpg'
p470
aa(lp471
S'Goldfrapp'
p472
aS'/media/dat/mus//Goldfrapp/2003, Black Cherry/cover.jpg'
p473
aa(lp474
S'Gorillaz'
p475
aS'/media/dat/mus//Gorillaz/Gorillaz/cover.jpg'
p476
aa(lp477
S'Gotan Project'
p478
aS'/media/dat/mus//Gotan Project/Tango 3.0/cover.jpg'
p479
aa(lp480
S'Green Day'
p481
aS'/media/dat/mus//Green Day/Dookie/cover.jpg'
p482
aa(lp483
S"Guns N' Roses"
p484
aS'/media/dat/mus//Guns N Roses/Use Your Illusion I/cover.jpg'
p485
aa(lp486
S'Gwen Stefani'
p487
aS'/media/dat/mus//Gwen Stefani/cover.jpg'
p488
aa(lp489
S'Hadouken'
p490
aS'/media/dat/mus//Hadouken!/Singles/(2008) Leap Of Faith (Remixes)/cover.JPEG'
p491
aa(lp492
S'Hadouken!'
p493
aS'/media/dat/mus//Hadouken!/Albums/(2010) For the Masses/cover.jpg'
p494
aa(lp495
S'Half Moon Run'
p496
aS'/media/dat/mus//Half Moon Run/Dark Eyes/cover.jpg'
p497
aa(lp498
S'Hammerfall'
p499
aS'/media/dat/mus//HammerFall/Threshold/cover.jpg'
p500
aa(lp501
S'Handpolished'
p502
ag4
aa(lp503
S'Hannah Cohen'
p504
aS'/media/dat/mus//Hannah Cohen/Child Bride/cover.jpg'
p505
aa(lp506
S'Hans Zimmer'
p507
aS'/media/dat/mus//Hans Zimmer/Crimson tide OST/cover.jpg'
p508
aa(lp509
S'Hawkwind'
p510
aS'/media/dat/mus//Hawkwind/In Search of Space/cover.jpg'
p511
aa(lp512
S'Helloween'
p513
aS'/media/dat/mus//Helloween/1985 - Walls of Jericho - (Japan)/cover.jpg'
p514
aa(lp515
S'Herbie Hancock'
p516
aS'/media/dat/mus//Herbie Hancock/River The Joni Letters/cover.jpg'
p517
aa(lp518
S'Howard Shore'
p519
aS'/media/dat/mus//Lotr Soundtrack/The Lord Of The Rings Fellowship Of The Ring/Disc 2/cover.jpg'
p520
aa(lp521
S'IQ'
p522
aS'/media/dat/mus//IQ/IQ - The Wake (1985)/cover.jpg'
p523
aa(lp524
S'Iced Earth'
p525
aS'/media/dat/mus//Iced Earth/Iced Earth - 2001 - Dark Genesis [EAC-FLAC]/05 - tribute to the gods/cover.jpg'
p526
aa(lp527
S'Iggy Pop'
p528
aS'/media/dat/mus//Iggy Pop - Preliminaires/cover.jpg'
p529
aa(lp530
S'In Flames'
p531
aS'/media/dat/mus//In Flames/The Jester Race  Black-Ash Inheritance/cover.jpg'
p532
aa(lp533
S'Incubus'
p534
aS'/media/dat/mus//Incubus/[2000] MTV Unplugged/cover.jpg'
p535
aa(lp536
S'Infected Mushroom'
p537
aS'/media/dat/mus//Infected Mushroom/(1999) Infected Mushroom - The Gathering/cover.jpg'
p538
aa(lp539
S'Infected Mushroom Feat. Jonathan Davis'
p540
aS'/media/dat/mus//Infected Mushroom/(2009) Infected Mushroom - Legend of The Black Shawarma/cover.jpg'
p541
aa(lp542
S'Infected Mushroom Feat. Perry Farrell'
p543
aS'/media/dat/mus//Infected Mushroom/(2009) Infected Mushroom - Legend of The Black Shawarma/cover.jpg'
p544
aa(lp545
S'Iron Maiden'
p546
aS'/media/dat/mus//Iron Maiden/A Real  Dead One/cover.jpg'
p547
aa(lp548
S'Jack Johnson'
p549
aS'/media/dat/mus//Jack Johnson - In Between Dreams/cover.jpg'
p550
aa(lp551
S'Jaco Pastorius'
p552
aS'/media/dat/mus//Jaco Pastorius/Live In New York City, Vol 1/cover.jpg'
p553
aa(lp554
S'Jag Panzer'
p555
aS'/media/dat/mus//Jag Panzer/Ample Destruction 320/cover.jpg'
p556
aa(lp557
S'Jamiroquai'
p558
aS'/media/dat/mus//Jamiroquai/A Funk Odyssey/cover.jpg'
p559
aa(lp560
S'Jazz at the Pawnshop'
p561
aS'/media/dat/mus//Jazz at the Pawnshop/Part 1/cover.jpg'
p562
aa(lp563
S'Jean Leclerc'
p564
aS'/media/dat/mus//Jean Leloup/Mexico/cover.jpg'
p565
aa(lp566
S'Jean Leloup'
p567
aS'/media/dat/mus//Jean Leloup/1985- 2005/cover.jpg'
p568
aa(lp569
S'Jean Luc Ponty'
p570
aS'/media/dat/mus//Jean-Luc Ponty/cover.jpg'
p571
aa(lp572
S'Jeff Beck'
p573
aS'/media/dat/mus//Jeff Beck/Truth/cover.jpg'
p574
aa(lp575
S'Jeff Beck Group'
p576
aS'/media/dat/mus//Jeff Beck/Truth/cover.jpg'
p577
aa(lp578
S'Jesse Rose'
p579
aS"/media/dat/mus//Jesse Rose/2009 - What Do You Do If You Don't/cover.jpg"
p580
aa(lp581
S'Jethro Tull'
p582
aS'/media/dat/mus//Jethro Tull/Aqualung/cover.jpg'
p583
aa(lp584
S'Joe Satriani'
p585
aS'/media/dat/mus//Joe Satriani/Surfing with the Alien/cover.jpg'
p586
aa(lp587
S'Johann Pachelbel'
p588
aS'/media/dat/mus//Orpheus Chamber Orchestra/cover.jpg'
p589
aa(lp590
S'Johann Sebastian Bach'
p591
aS'/media/dat/mus//Orpheus Chamber Orchestra/cover.jpg'
p592
aa(lp593
S'John Coltrane'
p594
aS'/media/dat/mus//John Coltrane/Giant Steps/cover.jpg'
p595
aa(lp596
S'John Lee Hooker'
p597
aS'/media/dat/mus//John Lee Hooker/Jealous/cover.jpg'
p598
aa(lp599
S'John McLaughlin'
p600
aS'/media/dat/mus//John McLaughlin/This is Jazz/cover.jpg'
p601
aa(lp602
S'John Petrucci'
p603
aS'/media/dat/mus//John Petrucci/Suspended Animation/cover.jpg'
p604
aa(lp605
S'John Petrucci and Jordan Rudess'
p606
aS'/media/dat/mus//John Petrucci/John Petrucci & Jordan Rudess - An Evening With/cover.jpg'
p607
aa(lp608
S'Johnny Cash'
p609
aS'/media/dat/mus//Johnny Cash/Bitter Tears/cover.jpg'
p610
aa(lp611
S'Joseph Arthur'
p612
ag4
aa(lp613
S'Journey'
p614
aS'/media/dat/mus//Journey/Greatest Hits (Vinyl Edition)/cover.jpg'
p615
aa(lp616
S'Judas Priest'
p617
aS'/media/dat/mus//Judas Priest/Priest...Live!/cover.jpg'
p618
aa(lp619
S'Just Ice'
p620
ag4
aa(lp621
S'Kabir/The Quantic Soul Orchestra'
p622
ag4
aa(lp623
S'Kamelot'
p624
ag4
aa(lp625
S'Kansas'
p626
aS'/media/dat/mus//Kansas - Dust In The Wind/cover.jpg'
p627
aa(lp628
S'Karkwa'
p629
ag4
aa(lp630
S'Kasabian'
p631
aS'/media/dat/mus//Kasabian/West Ryder Pauper Lunatic Asylum/cover.jpg'
p632
aa(lp633
S'Kataklysm'
p634
aS'/media/dat/mus//Kataklysm/Prevail/cover.jpg'
p635
aa(lp636
S'Kenneth Bager'
p637
ag4
aa(lp638
S'Kevin Drew'
p639
ag4
aa(lp640
S'Kid Koala'
p641
aS'/media/dat/mus//Kid Koala/Kid Koala/cover.jpg'
p642
aa(lp643
S'Killswitch Engage'
p644
aS'/media/dat/mus//Killswitch Engage/As Daylight Dies/cover.jpg'
p645
aa(lp646
S'King Crimson'
p647
aS'/media/dat/mus//King Crimson/Epitaph Volumes 1-4/cover.jpg'
p648
aa(lp649
S'Kings of Convenience'
p650
aS'/media/dat/mus//Kings of Convenience/Other/2009 - Boat Behind (CDS) [FLAC]/cover.jpg'
p651
aa(lp652
S'Kormac'
p653
aS'/media/dat/mus//Kormac/cover.jpg'
p654
aa(lp655
S'Korn'
p656
aS'/media/dat/mus//KoRn/KoRn - 1996 - Life Is Peachy  [FLAC]/cover.jpg'
p657
aa(lp658
S'Kraftwerk'
p659
aS'/media/dat/mus//Kraftwerk/Computerwelt/cover.jpg'
p660
aa(lp661
S'Kronos Quartet'
p662
aS'/media/dat/mus//Kronos Quartet/Released/cover.jpg'
p663
aa(lp664
S'LCD Soundsystem'
p665
aS'/media/dat/mus//LCD Soundsystem/Sound of Silver/cover.jpg'
p666
aa(lp667
S'Lady Gaga'
p668
aS'/media/dat/mus//Lady Gaga/The Fame Monster/cover.jpg'
p669
aa(lp670
S'Lady Gaga Feat. Beyonc\xc3\xa9'
p671
aS'/media/dat/mus//Lady Gaga/The Fame Monster/cover.jpg'
p672
aa(lp673
S"Lady Gaga Feat. Colby O'Donis"
p674
aS'/media/dat/mus//Lady Gaga/The Fame/cover.jpg'
p675
aa(lp676
S'Lady Gaga Feat. Space Cowboy and Flo Rida'
p677
aS'/media/dat/mus//Lady Gaga/The Fame/cover.jpg'
p678
aa(lp679
S'Lana Del Rey'
p680
aS'/media/dat/mus//Lana Del Rey - Born To Die (The Paradise Edition) - 2012 (320 kbps)/CD1/cover.jpg'
p681
aa(lp682
S'Led Zeppelin'
p683
aS'/media/dat/mus//Led Zeppelin/Led Zeppelin - Led Zeppelin II/cover.jpg'
p684
aa(lp685
S'Lenny Kravitz'
p686
aS'/media/dat/mus//Lenny Kravitz/Mama Said [1991] - FLAC - modotox/cover.jpg'
p687
aa(lp688
S'Leonard Cohen'
p689
ag4
aa(lp690
S'Les Colocs'
p691
aS'/media/dat/mus//Les Colocs/cover.jpg'
p692
aa(lp693
S'Lilly Allen'
p694
aS'/media/dat/mus//Lilly Allen - Allright Still/cover.jpg'
p695
aa(lp696
S'Lily Allen'
p697
aS'/media/dat/mus//Lilly Allen - Allright Still/cover.jpg'
p698
aa(lp699
S'Limp Bizkit'
p700
aS'/media/dat/mus//Limp bizkit/Significant Other (320kbps)/cover.jpg'
p701
aa(lp702
S'Limp Bizkit Feat. Matt Pinfield / Limp Bizkit Feat. Les Claypool'
p703
aS'/media/dat/mus//Limp bizkit/Significant Other (320kbps)/cover.jpg'
p704
aa(lp705
S'Limp Bizkit Feat. Method Man'
p706
aS'/media/dat/mus//Limp bizkit/Significant Other (320kbps)/cover.jpg'
p707
aa(lp708
S'Limp Twins'
p709
aS"/media/dat/mus//Quantic/Quantic & Quantic Soul Orchestra Complete Discography/The Limp Twins/The Limp Twins - Moving Closer To The Sofa 7'' (2002)/cover.jpg"
p710
aa(lp711
S'Linkin Park'
p712
ag4
aa(lp713
S'Liquid Tension Experiment'
p714
ag4
aa(lp715
S'Lisa Leblanc'
p716
aS'/media/dat/mus//LisaLeblanc/cover.jpg'
p717
aa(lp718
S'Little Miss Trinitron'
p719
ag4
aa(lp720
S'Lizz Wright'
p721
ag4
aa(lp722
S'London Philharmonic Orchestra'
p723
ag4
aa(lp724
S'Lords Of The Underground'
p725
ag4
aa(lp726
S'Loreena McKennitt'
p727
aS"/media/dat/mus//Loreena McKennitt - A Midwinter Night's Dream/cover.jpg"
p728
aa(lp729
S'Loz Contreras'
p730
aS'/media/dat/mus//Blackmill/2011 - Miracle/cover.jpg'
p731
aa(lp732
S'Luis Enriquez'
p733
ag4
aa(lp734
S'M'
ag4
aa(lp735
S'MGMT'
p736
aS'/media/dat/mus//MGMT/Oracular Spectacular HiDef FLAC/cover.jpg'
p737
aa(lp738
S'Madkap'
p739
ag4
aa(lp740
S'Madonna'
p741
aS'/media/dat/mus//Paul Oakenfold/DISC 2/VA-Paul Oakenfold - Greatest Hits and Remixes CD2/cover.jpg'
p742
aa(lp743
S'Maga Bo'
p744
ag4
aa(lp745
S'Magnetic Fields'
p746
ag4
aa(lp747
S'Mahavishnu Orchestra'
p748
aS'/media/dat/mus//Mahavishnu Orchestra/Apocalypse/cover.jpg'
p749
aa(lp750
S'Malajube'
p751
aS"/media/dat/mus//Malajube - Trompe-l'oeil/cover.jpg"
p752
aa(lp753
S'Manowar'
p754
aS'/media/dat/mus//Manowar/Fighting The World/cover.jpg'
p755
aa(lp756
S'Marcin Wasilewski Trio'
p757
ag4
aa(lp758
S'Marillion'
p759
aS'/media/dat/mus//Marillion/Brave/cover.jpg'
p760
aa(lp761
S'Marilyn Manson'
p762
aS'/media/dat/mus//Marilyn Manson/Holy Wood (In The Shadow Of The Valley Of Death)/cover.jpg'
p763
aa(lp764
S'Mark Knopfler'
p765
aS'/media/dat/mus//Dire Straits/Mark Knopfler - Wag The Dog/cover.jpg'
p766
aa(lp767
S'Mark Rae Vs. Deadbeats'
p768
ag4
aa(lp769
S'Martha Wainwright'
p770
aS'/media/dat/mus//Martha Wainwright/Martha Wainwright...Martha Wainwright(2005)[FLAC]/cover.jpg'
p771
aa(lp772
S'Massive Attack'
p773
aS'/media/dat/mus//Massive Attack/Blue Lines/cover.jpg'
p774
aa(lp775
S'Matthew Ryan'
p776
aS'/media/dat/mus//Matthew Ryan/Matthew Ryan - Dear Love (2009) [mp3@320]/cover.jpg'
p777
aa(lp778
S'Mazzy Star'
p779
aS'/media/dat/mus//Mazzy Star/Mazzy Star - Fade into You [Maxi single] CDRip/cover.jpg'
p780
aa(lp781
S'Megadeth'
p782
aS'/media/dat/mus//Megadeth/Rust In Peace/cover.jpg'
p783
aa(lp784
S'Memphis May Fire'
p785
aS'/media/dat/mus//Memphis May Fire/Sleepwalking/cover.jpg'
p786
aa(lp787
S'Metal Gear Solid'
p788
aS'/media/dat/mus//Metal Gear Solid/cover.jpg'
p789
aa(lp790
S'Metallica'
p791
ag4
aa(lp792
S'Metric'
p793
aS'/media/dat/mus//Metric/Grow Up and Blow Away/cover.jpg'
p794
aa(lp795
S'Michael Bubl\xc3\xa9'
p796
aS'/media/dat/mus//Michael Buble - Come Fly With Me/cover.jpg'
p797
aa(lp798
S'Microdisiacs'
p799
ag4
aa(lp800
S'Mike Oldfield'
p801
ag4
aa(lp802
S'Miles Davis'
p803
aS'/media/dat/mus//Miles Davis/Love Songs/cover.jpg'
p804
aa(lp805
S'Miles Davis and Gil Evans'
p806
aS'/media/dat/mus//Miles Davis/Porgy And Bess/cover.jpg'
p807
aa(lp808
S'Misteur Valaire'
p809
ag4
aa(lp810
S'Moby'
p811
aS'/media/dat/mus//Moby/Animal Rights/cover.jpg'
p812
aa(lp813
S'Mogwai'
p814
aS'/media/dat/mus//Mogwai/Happy songs for Happy Poeple/cover.jpg'
p815
aa(lp816
S'Molvaer, Nils Petter'
p817
aS'/media/dat/mus//Nils Petter Molvaer/Nils Petter Molvaer - 2001 - Recoloured - The Remix Album/cover.jpg'
p818
aa(lp819
S'Mono'
p820
aS'/media/dat/mus//Mono/Hymn to the immortal wind/cover.jpg'
p821
aa(lp822
S'Moonspell'
p823
aS'/media/dat/mus//Moonspell/2001 - Darkness And Hope/cover.jpg'
p824
aa(lp825
S'Morcheeba'
p826
aS'/media/dat/mus//Morcheeba/Who Can You Trust/cover.jpg'
p827
aa(lp828
S'Mortiis'
p829
aS'/media/dat/mus//Mortiis/Side Projects/Fata morgana/04. Fata Morgana/cover.jpg'
p830
aa(lp831
S'Mot\xc3\xb6rhead'
p832
aS'/media/dat/mus//Motorhead/Overkill/cover.jpg'
p833
aa(lp834
S'Mr Scruff'
p835
ag4
aa(lp836
S'Mr. Bungle'
p837
aS'/media/dat/mus//Mr Bungle/Disco Volante/cover.jpg'
p838
aa(lp839
S'Mr. Scruff'
p840
aS'/media/dat/mus//Mr. Scruff/Mr. Scruff - 2008 - Ninja Tuna/cover.jpg'
p841
aa(lp842
S'Mumford & Sons'
p843
ag4
aa(lp844
S'Mumford and Sons'
p845
aS'/media/dat/mus//Mumford and Sons /Sign No More/cover.jpg'
p846
aa(lp847
S"Mungo's Hifi Feat. Brother Culture"
p848
ag4
aa(lp849
S'Muse'
p850
aS'/media/dat/mus//Muse/Resistance/cover.jpg'
p851
aa(lp852
S'My Dying Bride'
p853
aS'/media/dat/mus//My Dying Bride/For Lies I Sire/cover.jpg'
p854
aa(lp855
S'Nickelback'
p856
aS'/media/dat/mus//Nickelback/All The Right Reasons/cover.jpg'
p857
aa(lp858
S'Nicolas Repac'
p859
aS'/media/dat/mus//Nicolas Repac - Swing Swing (2004)/cover.jpg'
p860
aa(lp861
S'Nightwish'
p862
ag4
aa(lp863
S'Nils Petter Molv\xc3\xa6r'
p864
aS'/media/dat/mus//Nils Petter Molvaer/Nils Petter Molvaer - 2001 - Recoloured - The Remix Album/cover.jpg'
p865
aa(lp866
S'Nina Simone'
p867
aS'/media/dat/mus//Nina Simone - The Essential Nina Simone/cover.jpg'
p868
aa(lp869
S'Nine Inch Nails'
p870
aS'/media/dat/mus//NIN/NIN - 2001 - [halo 17] And All That Could Have Been/cover.jpg'
p871
aa(lp872
S'No Doubt'
p873
aS'/media/dat/mus//No Doubt/Return Of Saturn/cover.jpg'
p874
aa(lp875
S"Noel Gallagher's High Flying Birds"
p876
ag4
aa(lp877
S'Norah Jones'
p878
aS'/media/dat/mus//Norah Jones/The Fall/cover.jpg'
p879
aa(lp880
S'Nostradameus'
p881
aS'/media/dat/mus//Nostradameus/The third prophecy/cover.jpg'
p882
aa(lp883
S'Oasis'
p884
aS"/media/dat/mus//Oasis - (What's the Story) Morning Glory/cover.jpg"
p885
aa(lp886
S'Opeth'
p887
aS'/media/dat/mus//Opeth/Ghost Reveries/cover.jpg'
p888
aa(lp889
S'Orpheus Chamber Orchestra'
p890
aS'/media/dat/mus//Orpheus Chamber Orchestra/cover.jpg'
p891
aa(lp892
S'Oscar Peterson'
p893
aS'/media/dat/mus//Stan Getz/Stan Getz and The Oscar Peterson Trio/cover.jpg'
p894
aa(lp895
S'Oscar Sulley & The Uhuru Dance Band'
p896
ag4
aa(lp897
S'Our Lady Peace'
p898
aS'/media/dat/mus//Our Lady Peace/cover.jpg'
p899
aa(lp900
S'Palov & Mishkin'
p901
ag4
aa(lp902
S'Pantera'
p903
aS'/media/dat/mus//Pantera/PANTERA [1983] Metal Magic [EAC-APE]/cover.jpg'
p904
aa(lp905
S'Papa Austin With The Great Peso'
p906
ag4
aa(lp907
S'Papa Roach'
p908
aS'/media/dat/mus//Papa roach/Getting Away With Murder/cover.jpg'
p909
aa(lp910
S'Paradise Lost'
p911
ag4
aa(lp912
S'Parov Stelar'
p913
aS'/media/dat/mus//Parov Stelar/A Night In Torino/cover.jpg'
p914
aa(lp915
S'Parov Stelar and Band'
p916
aS'/media/dat/mus//Parov Stelar/Live at Roxy Club/cover.jpg'
p917
aa(lp918
S'Pat Metheny'
p919
aS'/media/dat/mus//Orchestrion/cover.jpg'
p920
aa(lp921
S'Patrick Watson'
p922
aS'/media/dat/mus//Patrick Watson/Wooden Arms/cover.jpg'
p923
aa(lp924
S'Paul Oakenfold'
p925
aS'/media/dat/mus//Kronos Quartet/Pieces of Africa/cover.jpg'
p926
aa(lp927
S'Pawa Up First'
p928
aS'/media/dat/mus//Pawa up First/Introducing New Details/cover.jpg'
p929
aa(lp930
S'Pearl Jam'
p931
ag4
aa(lp932
S'Pendulum'
p933
aS'/media/dat/mus//Pendulum/In Silico/cover.jpg'
p934
aa(lp935
S'Peter Gabriel'
p936
aS'/media/dat/mus//Peter Gabriel/Peter Gabriel Scratch My Back 2010 [320 Kbps]/cover.jpg'
p937
aa(lp938
S'Phantogram'
p939
aS'/media/dat/mus//Phantogram - Nightlife (2011) [FLAC] politux [FAP]/cover.jpg'
p940
aa(lp941
S'Pharoah Sanders'
p942
ag4
aa(lp943
S'Phideaux'
p944
aS'/media/dat/mus//Phideaux/Ghost Story/cover.jpg'
p945
aa(lp946
S'Phil Collins'
p947
aS'/media/dat/mus//Phil Collins - ...Hits/cover.jpg'
p948
aa(lp949
S'Pink Floyd'
p950
aS'/media/dat/mus//Pink Floyd/1967 - The Piper At The Gates Of Dawn/cover.jpg'
p951
aa(lp952
S'Plan B'
p953
aS'/media/dat/mus//Hadouken!/EPs/(2007) Not Here To Please You (Mixtape)/cover.jpg'
p954
aa(lp955
S'Plant, Robert and Alison Krauss'
p956
aS'/media/dat/mus//Robert Plant/Robert Plant and Alison Krauss - Raising Sand/cover.jpg'
p957
aa(lp958
S'Porcupine Tree'
p959
aS'/media/dat/mus//Porcupine Tree/1997-Coma Divine - live In Rome/Part I/cover.jpg'
p960
aa(lp961
S'Portico Quartet'
p962
ag4
aa(lp963
S'Portishead'
p964
aS'/media/dat/mus//Portishead/Dummy/cover.jpg'
p965
aa(lp966
S'Prefuse 73'
p967
ag4
aa(lp968
S'Premiata Forneria Marconi'
p969
aS'/media/dat/mus//Premiata Forneria Marconi/photos of ghosts/cover.jpg'
p970
aa(lp971
S'Protest the Hero'
p972
aS'/media/dat/mus//Protest the hero/Fortress/cover.jpg'
p973
aa(lp974
S'Public Enemy'
p975
ag4
aa(lp976
S'Puscifer'
p977
aS'/media/dat/mus//Puscifer/Puscifer - V is for vagina (2007) [FLAC]/cover.jpg'
p978
aa(lp979
S'Quantic'
p980
ag4
aa(lp981
S'Quantic & Mr. Scruff'
p982
ag4
aa(lp983
S'Quantic Soul Orchestra'
p984
ag4
aa(lp985
S'Queen'
p986
aS'/media/dat/mus//Queen/Queen II/cover.jpg'
p987
aa(lp988
S'Queensr\xc3\xbfche'
p989
aS'/media/dat/mus//Queensryche/Operation  Mindcrime/cover.jpg'
p990
aa(lp991
S'RJD2'
p992
aS'/media/dat/mus//RJD2/2004 - 1976/cover.jpg'
p993
aa(lp994
S'Radiohead'
p995
aS'/media/dat/mus//Radiohead/In Rainbows/CD 2/cover.jpg'
p996
aa(lp997
S'Rage Against the Machine'
p998
ag4
aa(lp999
S'Rain Man'
p1000
aS'/media/dat/mus//Hans Zimmer/Rain Man OST/cover.jpg'
p1001
aa(lp1002
S'Rainbow'
p1003
aS'/media/dat/mus//Rainbow/Stranger In Us All/cover.jpg'
p1004
aa(lp1005
S'Rammstein'
p1006
aS'/media/dat/mus//Rammstein/Herzeleid/cover.jpg'
p1007
aa(lp1008
S'Ratatat'
p1009
aS'/media/dat/mus//Ratatat/2004b. Ratatat Remixes Vol. 1/cover.jpg'
p1010
aa(lp1011
S'Ravel, Maurice'
p1012
ag4
aa(lp1013
S'Ray Charles'
p1014
aS'/media/dat/mus//Ray Charles/Genius Loves Company/cover.jpg'
p1015
aa(lp1016
S'Red Hot Chili Peppers'
p1017
ag4
aa(lp1018
S'Red Riding Hood'
p1019
ag4
aa(lp1020
S'Return to Forever'
p1021
aS'/media/dat/mus//Return to Forever/Romantic Warrior/cover.jpg'
p1022
aa(lp1023
S'Rhapsody'
p1024
ag4
aa(lp1025
S'Rheinberger'
p1026
aS'/media/dat/mus//J.G. Rheinberger/cover.jpg'
p1027
aa(lp1028
S'Rick Wakeman'
p1029
aS'/media/dat/mus//Rick Wakeman - Journey to the Centre of the Earth/cover.jpg'
p1030
aa(lp1031
S'Riverside'
p1032
aS'/media/dat/mus//Riverside/Anno Domini High Definition/cover.jpg'
p1033
aa(lp1034
S'RjD2'
p1035
aS'/media/dat/mus//RJD2/2002 - Deadringer/cover.jpg'
p1036
aa(lp1037
S'Rjd2'
p1038
ag4
aa(lp1039
S'Rob Zombie'
p1040
aS'/media/dat/mus//Rob Zombie - Hellbilly Deluxe/cover.jpg'
p1041
aa(lp1042
S'Robert Plant'
p1043
aS'/media/dat/mus//Robert Plant/Now and Zen/cover.jpg'
p1044
aa(lp1045
S'Roger Waters'
p1046
aS'/media/dat/mus//Roger Waters/Amused to Death/cover.jpg'
p1047
aa(lp1048
S'Rolling Stones'
p1049
aS'/media/dat/mus//The Rolling Stones/[1976] Black And Blue (UMG Remastered 2009)/cover.jpg'
p1050
aa(lp1051
S'Rosie Brown'
p1052
ag4
aa(lp1053
S'Ruben Gonzalez'
p1054
aS'/media/dat/mus//Ruben Gonzalez - Introducing/cover.jpg'
p1055
aa(lp1056
S'Rush'
p1057
aS'/media/dat/mus//Rush/6-Rush - Counterparts (The Rush Remasters)/Rush - Counterparts (The Rush Remasters)/cover.jpg'
p1058
aa(lp1059
S'Sagot'
p1060
aS'/media/dat/mus//Sagot - Piano mal/cover.jpg'
p1061
aa(lp1062
S'Santana'
p1063
aS'/media/dat/mus//Santana/Caravanserai/cover.jpg'
p1064
aa(lp1065
S'Sarah McLachlan'
p1066
aS'/media/dat/mus//Sarah McLachlan/Sarah McLachlan - Solace 1991/cover.jpg'
p1067
aa(lp1068
S'Sarah McLachlan Feat. Emmylou Harris'
p1069
aS'/media/dat/mus//Sarah McLachlan/Sarah McLachlan - Rarities B Sides and other Stuff 2 2008/cover.jpg'
p1070
aa(lp1071
S'Sarah Winton'
p1072
ag4
aa(lp1073
S'Scorpions'
p1074
aS'/media/dat/mus//Scorpions/Deadly Sting The Mercury Years/Disc 2/cover.jpg'
p1075
aa(lp1076
S'Sepultura'
p1077
aS'/media/dat/mus//Sepultura/Roots/Roots/cover.jpg'
p1078
aa(lp1079
S'Sergei Rachmaninoff'
p1080
aS'/media/dat/mus//Rachmaninov/The Best of Rachmaninov/cover.jpg'
p1081
aa(lp1082
S'Serj Tankian'
p1083
aS'/media/dat/mus//Serj Takian/cover.jpg'
p1084
aa(lp1085
S'Shadows Fall'
p1086
ag4
aa(lp1087
S'Shamen'
p1088
aS'/media/dat/mus//Paul Oakenfold/DISC 1/VA-Paul Oakenfold - Greatest Hits and Remixes/cover.jpg'
p1089
aa(lp1090
S'Shooglenifty'
p1091
aS'/media/dat/mus//Shooglenifty/2000 - Solar Shears/cover.jpg'
p1092
aa(lp1093
S'Show & Ag'
p1094
ag4
aa(lp1095
S'Sigur R\xc3\xb3s'
p1096
ag4
aa(lp1097
S'Silje Nergaard'
p1098
ag4
aa(lp1099
S'Silversun Pickups'
p1100
ag4
aa(lp1101
S'Simon and Garfunkel'
p1102
aS'/media/dat/mus//Simon & Garfunkel/The Collection/Simon & Garfunkel  - Bookends/cover.jpg'
p1103
aa(lp1104
S'Skalpel'
p1105
ag4
aa(lp1106
S'Skrillex'
p1107
aS'/media/dat/mus//Skrillex/Scary Monsters and Nice Sprites/FLAC/cover.jpg'
p1108
aa(lp1109
S'Skunk Anansie'
p1110
aS'/media/dat/mus//Paul Oakenfold/DISC 1/VA-Paul Oakenfold - Greatest Hits and Remixes/cover.jpg'
p1111
aa(lp1112
S'Slayer'
p1113
ag4
aa(lp1114
S'Slipknot'
p1115
ag4
aa(lp1116
S'Solomon Burke'
p1117
aS'/media/dat/mus//Solomon Burke/Solomon Burke - The Best of Solomon Burke (1965)/cover.jpg'
p1118
aa(lp1119
S'Son Lux'
p1120
ag4
aa(lp1121
S'Sonic Youth'
p1122
ag4
aa(lp1123
S'Soul Ii Soul'
p1124
ag4
aa(lp1125
S'Soul Position'
p1126
aS'/media/dat/mus//RJD2/2003 - Soul Position (RJD2 & Blueprint) - 8 Million Stories/cover.jpg'
p1127
aa(lp1128
S'Spaghetti Head'
p1129
ag4
aa(lp1130
S'Spanky Wilson & The Quantic Soul Orchestra'
p1131
ag4
aa(lp1132
S'Spocks Beard'
p1133
aS'/media/dat/mus//Spocksbeard/cover.jpg'
p1134
aa(lp1135
S'Spyro Gyra'
p1136
aS'/media/dat/mus//Spyro Gyra/Morning Dance/cover.jpg'
p1137
aa(lp1138
S'Squirrel Nut Zippers'
p1139
aS'/media/dat/mus//Squirrel Nut Zippers/1998 - Perennial Favorites/cover.jpg'
p1140
aa(lp1141
S'Stan Getz'
p1142
aS'/media/dat/mus//Stan Getz/Stan Getz and The Oscar Peterson Trio/cover.jpg'
p1143
aa(lp1144
S'Stan Getz and the Oscar Peterson Trio'
p1145
aS'/media/dat/mus//Stan Getz/Stan Getz and The Oscar Peterson Trio/cover.jpg'
p1146
aa(lp1147
S'Star One'
p1148
aS'/media/dat/mus//Star One/Star One - Space Metal 2002/cover.jpg'
p1149
aa(lp1150
S'Stars'
p1151
aS'/media/dat/mus//Stars - Set Yourself on Fire/cover.jpg'
p1152
aa(lp1153
S'Stereophonics'
p1154
aS'/media/dat/mus//Stereophonics/Stereophonics...You Gotta Go There to Come Back(2003)[FLAC]/cover.jpg'
p1155
aa(lp1156
S'Steve Hackett'
p1157
aS'/media/dat/mus//Steve Hackett/To Watch The Storms/cover.jpg'
p1158
aa(lp1159
S'Steve Vai'
p1160
aS'/media/dat/mus//Steve Vai/Passion And Warfare/cover.jpg'
p1161
aa(lp1162
S'Steven Wilson'
p1163
aS'/media/dat/mus//Insurgentes 5.1/cover.jpg'
p1164
aa(lp1165
S'Stevie Ray Vaughan'
p1166
aS'/media/dat/mus//Stevie Ray Vaughan/Double Trouble - The Sky Is Crying/cover.jpg'
p1167
aa(lp1168
S'Stevie Wonder'
p1169
ag4
aa(lp1170
S'Sting and the Police'
p1171
ag4
aa(lp1172
S'Stone Alliance'
p1173
ag4
aa(lp1174
S'Stream of Passion'
p1175
ag4
aa(lp1176
S'Sun Ra'
p1177
ag4
aa(lp1178
S'Supertramp'
p1179
aS'/media/dat/mus//Supertramp/1979-Breakfast in America [SHM-CD]/cover.jpg'
p1180
aa(lp1181
S'Switchstance Recordings'
p1182
aS'/media/dat/mus//Kabanjak/Grow/cover.jpg'
p1183
aa(lp1184
S'Symphony X'
p1185
aS'/media/dat/mus//Symphony X/Paradise Lost/cover.jpg'
p1186
aa(lp1187
S'System of a Down'
p1188
aS'/media/dat/mus//System Of A Down/Toxicity/cover.jpg'
p1189
aa(lp1190
S'Tame Impala'
p1191
ag4
aa(lp1192
S'Tangerine Dream'
p1193
aS'/media/dat/mus//Tangerine Dream/Hyperborea/cover.jpg'
p1194
aa(lp1195
S'Tchaikovsky'
p1196
aS'/media/dat/mus//Tchaikovsky - 1812 Overture/1812 overture/cover.jpg'
p1197
aa(lp1198
S'Tcha\xc3\xafkovsky'
p1199
aS'/media/dat/mus//Peter Ilyich Tchaikovsky/The Sleeping Beauty, Op.66 (CD 1)/cover.jpg'
p1200
aa(lp1201
S'Tears for Fears'
p1202
ag4
aa(lp1203
S'Tego Calder\xc3\xb3n'
p1204
ag4
aa(lp1205
S'The Alan Parsons Project'
p1206
aS'/media/dat/mus//The Alan Parsons Project/Stereotomy/cover.jpg'
p1207
aa(lp1208
S'The Atomic Fireballs'
p1209
aS'/media/dat/mus//The Atomic Fireballs/1998 - Birth of the Swerve/cover.jpg'
p1210
aa(lp1211
S'The Beatles'
p1212
aS'/media/dat/mus//The Beatles/Abbey Road/cover.jpg'
p1213
aa(lp1214
S'The Black Keys'
p1215
aS'/media/dat/mus//The Black Keys/The Black Keys - Brothers (2010) [FLAC]/cover.jpg'
p1216
aa(lp1217
S'The Chemical Brothers'
p1218
aS'/media/dat/mus//Chemical Brothers/Dig Your Own Hole/cover.jpg'
p1219
aa(lp1220
S'The Cinematic Orchestra'
p1221
aS'/media/dat/mus//The Cinematic Orchestra/Motion/cover.jpg'
p1222
aa(lp1223
S'The Clash'
p1224
aS'/media/dat/mus//The Clash/Clash On Broadway (Extras + Rarities)/cover.jpg'
p1225
aa(lp1226
S'The Cranberries'
p1227
aS'/media/dat/mus//The Cranberries/No Need To Argue/cover.jpg'
p1228
aa(lp1229
S'The Cure'
p1230
aS'/media/dat/mus//The Cure - Greatest Hits/cover.jpg'
p1231
aa(lp1232
S'The Dears'
p1233
aS'/media/dat/mus//The Dears/The Dears - Gang of Losers/cover.jpg'
p1234
aa(lp1235
S'The Doors'
p1236
aS'/media/dat/mus//Infected Mushroom/(2009) Infected Mushroom - Legend of The Black Shawarma/cover.jpg'
p1237
aa(lp1238
S'The Drums'
p1239
aS'/media/dat/mus//The Drums/cover.jpg'
p1240
aa(lp1241
S'The Jesus and Mary Chain'
p1242
aS'/media/dat/mus//The Jesus And Mary Chain - Psychocandy/cover.jpg'
p1243
aa(lp1244
S'The Johannes Brahms'
p1245
ag4
aa(lp1246
S'The Killers'
p1247
aS'/media/dat/mus//The Killers/Hot Fuss/cover.jpg'
p1248
aa(lp1249
S'The Knife'
p1250
aS'/media/dat/mus//The Knife/Albums/The Knife - Deep Cuts/cover.jpg'
p1251
aa(lp1252
S'The Limp Twins'
p1253
ag4
aa(lp1254
S'The Lonely Island'
p1255
aS'/media/dat/mus//The Lonely Island - Incredibad/cover.jpg'
p1256
aa(lp1257
S'The Lord of the Rings Soundtrack'
p1258
ag4
aa(lp1259
S'The Lost Fingers'
p1260
aS"/media/dat/mus//The Lost Fingers/Lost In The 80's/cover.jpg"
p1261
aa(lp1262
S'The Mars Volta'
p1263
aS'/media/dat/mus//The Mars Volta/The Bedlam In Goliath/cover.jpg'
p1264
aa(lp1265
S'The Offspring'
p1266
aS'/media/dat/mus//The Offspring/Smash/cover.jpg'
p1267
aa(lp1268
S'The Ogyatanaa Show Band'
p1269
ag4
aa(lp1270
S'The Orb Featuring David Gilmour'
p1271
aS'/media/dat/mus//The Orb f. David Gilmour - Metallic Spheres/cover.jpg'
p1272
aa(lp1273
S'The Peddlers'
p1274
ag4
aa(lp1275
S'The Prodigy'
p1276
aS'/media/dat/mus//Prodigy/Invaders Must Die Deluxe/cover.jpg'
p1277
aa(lp1278
S'The Quantic Soul Orchestra'
p1279
ag4
aa(lp1280
S'The Radio Dept.'
p1281
ag4
aa(lp1282
S'The Roots'
p1283
aS'/media/dat/mus//The Roots - Phrenology/cover.jpg'
p1284
aa(lp1285
S'The Sheepdogs'
p1286
aS'/media/dat/mus//The Sheepdogs/2007 Trying To Grow/cover.jpg'
p1287
aa(lp1288
S'The Stills-Young Band'
p1289
aS'/media/dat/mus//The Stills - Young Band-Long May You Run/cover.jpg'
p1290
aa(lp1291
S'The Strokes'
p1292
aS'/media/dat/mus//The Strokes - Room On Fire/cover.jpg'
p1293
aa(lp1294
S'The Tangent'
p1295
aS'/media/dat/mus//The Tangent - A Place in the Queue/cover.jpg'
p1296
aa(lp1297
S'The Tragically Hip'
p1298
aS'/media/dat/mus//Tragically Hip/The Tragically Hip - Road Apples [FLAC]/cover.jpg'
p1299
aa(lp1300
S'The Verve'
p1301
aS'/media/dat/mus//The Verve/cover.jpg'
p1302
aa(lp1303
S'The Whip'
p1304
ag4
aa(lp1305
S'The White Stripes'
p1306
aS'/media/dat/mus//The White Stripes/Icky Thump (Hoffman Vinyl Rip)/cover.jpg'
p1307
aa(lp1308
S'The Xx'
p1309
aS'/media/dat/mus//The XX/XX/cover.jpg'
p1310
aa(lp1311
S'Therion'
p1312
aS'/media/dat/mus//Therion/(2004) Sirius B [FLAC]/cover.jpg'
p1313
aa(lp1314
S'Thievery Corporation'
p1315
aS'/media/dat/mus//Thievery Corporation/Sounds From The Thievery Hi-Fi/cover.jpg'
p1316
aa(lp1317
S'Thunderdome'
p1318
aS'/media/dat/mus//Thunderdome/cover.jpg'
p1319
aa(lp1320
S'Tiamat'
p1321
aS'/media/dat/mus//Tiamat/Wildhoney/cover.jpg'
p1322
aa(lp1323
S'Timbaland'
p1324
aS'/media/dat/mus//Timbaland - Shock Value II/cover.jpg'
p1325
aa(lp1326
S"Timbaland Feat. Attitude, Bran'nu and D.O.E."
p1327
aS'/media/dat/mus//Timbaland - Shock Value II/cover.jpg'
p1328
aa(lp1329
S"Timbaland Feat. Bran' Nu"
p1330
aS'/media/dat/mus//Timbaland - Shock Value II/cover.jpg'
p1331
aa(lp1332
S'Timbaland Feat. Chad Kroeger and Sebastian'
p1333
aS'/media/dat/mus//Timbaland - Shock Value II/cover.jpg'
p1334
aa(lp1335
S'Timbaland Feat. Daughtry'
p1336
aS'/media/dat/mus//Timbaland - Shock Value II/cover.jpg'
p1337
aa(lp1338
S'Timbaland Feat. Drake'
p1339
aS'/media/dat/mus//Timbaland - Shock Value II/cover.jpg'
p1340
aa(lp1341
S'Timbaland Feat. Jet'
p1342
aS'/media/dat/mus//Timbaland - Shock Value II/cover.jpg'
p1343
aa(lp1344
S'Timbaland Feat. Jojo'
p1345
aS'/media/dat/mus//Timbaland - Shock Value II/cover.jpg'
p1346
aa(lp1347
S'Timbaland Feat. Justin Timberlake'
p1348
aS'/media/dat/mus//Timbaland - Shock Value II/cover.jpg'
p1349
aa(lp1350
S'Timbaland Feat. Katy Perry'
p1351
aS'/media/dat/mus//Timbaland - Shock Value II/cover.jpg'
p1352
aa(lp1353
S'Timbaland Feat. Keri Hilson and D.O.E.'
p1354
aS'/media/dat/mus//Timbaland - Shock Value II/cover.jpg'
p1355
aa(lp1356
S'Timbaland Feat. Miley Cyrus'
p1357
aS'/media/dat/mus//Timbaland - Shock Value II/cover.jpg'
p1358
aa(lp1359
S'Timbaland Feat. Nelly Furtado and Soshy'
p1360
aS'/media/dat/mus//Timbaland - Shock Value II/cover.jpg'
p1361
aa(lp1362
S'Timbaland Feat. Onerepublic'
p1363
aS'/media/dat/mus//Timbaland - Shock Value II/cover.jpg'
p1364
aa(lp1365
S'Timbaland Feat. Sebastian and Esthero'
p1366
aS'/media/dat/mus//Timbaland - Shock Value II/cover.jpg'
p1367
aa(lp1368
S'Timbaland Feat. the Fray and Esthero'
p1369
aS'/media/dat/mus//Timbaland - Shock Value II/cover.jpg'
p1370
aa(lp1371
S'Tipper'
p1372
ag4
aa(lp1373
S'Tom Waits'
p1374
aS'/media/dat/mus//Tom Waits/Wild Years/cover.jpg'
p1375
aa(lp1376
S'Tool'
p1377
aS'/media/dat/mus//Tool/Undertow (VINYL)/cover.jpg'
p1378
aa(lp1379
S'Tool Feat. Henry Rollins'
p1380
aS'/media/dat/mus//Tool/Undertow (VINYL)/cover.jpg'
p1381
aa(lp1382
S'Toto'
p1383
aS'/media/dat/mus//Dune soundtrack/cover.jpg'
p1384
aa(lp1385
S'Tracy Chapman'
p1386
aS'/media/dat/mus//Tracy Chapman/Crossroads/cover.jpg'
p1387
aa(lp1388
S'Tycho'
p1389
aS'/media/dat/mus//Tycho/Dive/cover.jpg'
p1390
aa(lp1391
S'U2'
p1392
aS'/media/dat/mus//U2/cover.jpg'
p1393
aa(lp1394
S'Ultramagnetic Mcs'
p1395
ag4
aa(lp1396
S'Ulver'
p1397
aS'/media/dat/mus//Ulver/Ulver - Wars Of The Roses 2011/cover.jpg'
p1398
aa(lp1399
S'Underworld'
p1400
aS'/media/dat/mus//Paul Oakenfold/DISC 2/VA-Paul Oakenfold - Greatest Hits and Remixes CD2/cover.jpg'
p1401
aa(lp1402
S'United Future Organisation'
p1403
ag4
aa(lp1404
S'Unknown Artist'
p1405
ag4
aa(lp1406
S'Uriah Heep'
p1407
aS'/media/dat/mus//Uriah Heep/Demons And Wizards/cover.jpg'
p1408
aa(lp1409
S'Utd'
p1410
ag4
aa(lp1411
S'VA'
p1412
ag4
aa(lp1413
S'Van Der Graaf Generator'
p1414
aS'/media/dat/mus//Van Der Graaf Generator/Godbluff/cover.jpg'
p1415
aa(lp1416
S'Vangelis'
p1417
aS'/media/dat/mus//Vangelis/Blade Runner Soundtrack/cover.jpg'
p1418
aa(lp1419
S'Various Artists'
p1420
aS'/media/dat/mus//Chinese Man/2007 - The Groove Sessions/cover.jpg'
p1421
aa(lp1422
S'Victor Malloy'
p1423
ag4
aa(lp1424
S'Visit Venus'
p1425
ag4
aa(lp1426
S'Vitalic'
p1427
aS'/media/dat/mus//Vitalic - Flashmob/cover.jpg'
p1428
aa(lp1429
S'Vivaldi'
p1430
ag4
aa(lp1431
S'Waldeck'
p1432
aS'/media/dat/mus//Waldeck/1998 - Balance Of The Force/cover.jpg'
p1433
aa(lp1434
S'Wes Montgomery'
p1435
aS"/media/dat/mus//Wes Montgomery - Talkin' Verve (Roots Of Acid Jazz)/cover.jpg"
p1436
aa(lp1437
S'Whitesnake'
p1438
aS'/media/dat/mus//Whitesnake/Whitesnake - Greatest Hits/cover.jpg'
p1439
aa(lp1440
S'Within Temptation'
p1441
aS'/media/dat/mus//Within Temptation/2003 - Running Up That Hill (single)/cover.jpg'
p1442
aa(lp1443
S'Within Temptation and the Metropole Orchestra'
p1444
aS'/media/dat/mus//Within Temptation/2008 - Black Symphony CD1/cover.jpg'
p1445
aa(lp1446
S'Yes'
p1447
aS'/media/dat/mus//Yes/(1973) Yessongs [live]/CD1/cover.jpg'
p1448
aa(lp1449
S'Zero 7'
p1450
aS'/media/dat/mus//Zero 7/The Garden/cover.jpg'
p1451
aa(lp1452
S'alt-J'
p1453
aS'/media/dat/mus//Alt-J/Alt-J-An_Awesome_Wave-2012-pLAN9/cover.jpg'
p1454
aa(lp1455
S'parov stelar'
p1456
aS'/media/dat/mus//Parov Stelar/wanna get/cover.jpg'
p1457
aa(lp1458
S'quantic'
p1459
ag4
aa(lp1460
S'the quantic soul orchestra'
p1461
ag4
aa(lp1462
S'waldeck'
p1463
ag4
aa.