(iindexation
Result
p1
(dp2
S'numberOfIndexedFiles'
p3
I15880
sS'numberOfFilesNotImported'
p4
I1460
sS'filesNotImported'
p5
(lp6
S'/media/dat/mus/Ayreon/Elected/02 - E=mc\xc2\xb2 (acoustic live version).flac'
p7
aS'/media/dat/mus/Esbj\xc3\xb6rn Svensson Trio/Viaticum/08. E.S.T. (Esbj\xc3\xb6rn Svensson Trio) - A Picture Of Doris Travelling With Boris.flac'
p8
aS'/media/dat/mus/Esbj\xc3\xb6rn Svensson Trio/Viaticum/04. E.S.T. (Esbj\xc3\xb6rn Svensson Trio) - The Unstable Table & The Infamous Fable.flac'
p9
aS'/media/dat/mus/Esbj\xc3\xb6rn Svensson Trio/Viaticum/09. E.S.T. (Esbj\xc3\xb6rn Svensson Trio) - What Though The Way May Be Long.flac'
p10
aS'/media/dat/mus/Esbj\xc3\xb6rn Svensson Trio/Viaticum/02. E.S.T. (Esbj\xc3\xb6rn Svensson Trio) - Eighty-Eight Days In My Veins.flac'
p11
aS'/media/dat/mus/Esbj\xc3\xb6rn Svensson Trio/Viaticum/07. E.S.T. (Esbj\xc3\xb6rn Svensson Trio) - Letter From Leviathan.flac'
p12
aS'/media/dat/mus/Esbj\xc3\xb6rn Svensson Trio/Viaticum/06. E.S.T. (Esbj\xc3\xb6rn Svensson Trio) - In The Tail Of Her Eye.flac'
p13
aS'/media/dat/mus/Esbj\xc3\xb6rn Svensson Trio/Viaticum/05. E.S.T. (Esbj\xc3\xb6rn Svensson Trio) - Viaticum.flac'
p14
aS'/media/dat/mus/Esbj\xc3\xb6rn Svensson Trio/Viaticum/01. E.S.T. (Esbj\xc3\xb6rn Svensson Trio) - Tide Of Trepidation.flac'
p15
aS'/media/dat/mus/Esbj\xc3\xb6rn Svensson Trio/Viaticum/03. E.S.T. (Esbj\xc3\xb6rn Svensson Trio) - The Well-Wisher.flac'
p16
aS'/media/dat/mus/Esbj\xc3\xb6rn Svensson Trio/Plays Monk/07 - Esbj\xc3\xb6rn Svensson Trio - Little Rootie Tootie.flac'
p17
aS'/media/dat/mus/Esbj\xc3\xb6rn Svensson Trio/Plays Monk/04 - Esbj\xc3\xb6rn Svensson Trio - Bemsha Swing.flac'
p18
aS'/media/dat/mus/Esbj\xc3\xb6rn Svensson Trio/Plays Monk/08 - Esbj\xc3\xb6rn Svensson Trio - Eronel.flac'
p19
aS'/media/dat/mus/Esbj\xc3\xb6rn Svensson Trio/Plays Monk/09 - Esbj\xc3\xb6rn Svensson Trio - Evidence.flac'
p20
aS'/media/dat/mus/Esbj\xc3\xb6rn Svensson Trio/Plays Monk/02 - Esbj\xc3\xb6rn Svensson Trio - Criss Cross.flac'
p21
aS'/media/dat/mus/Esbj\xc3\xb6rn Svensson Trio/Plays Monk/05 - Esbj\xc3\xb6rn Svensson Trio - Rhythm-A-Ning.flac'
p22
aS'/media/dat/mus/Esbj\xc3\xb6rn Svensson Trio/Plays Monk/10 - Esbj\xc3\xb6rn Svensson Trio - Crepuscule With Nellie.flac'
p23
aS"/media/dat/mus/Esbj\xc3\xb6rn Svensson Trio/Plays Monk/03 - Esbj\xc3\xb6rn Svensson Trio - 'Round Midnight.flac"
p24
aS'/media/dat/mus/Esbj\xc3\xb6rn Svensson Trio/Plays Monk/01 - Esbj\xc3\xb6rn Svensson Trio - I Mean You.flac'
p25
aS'/media/dat/mus/Esbj\xc3\xb6rn Svensson Trio/Plays Monk/06 - Esbj\xc3\xb6rn Svensson Trio - In Walked Bud.flac'
p26
aS'/media/dat/mus/Esbj\xc3\xb6rn Svensson Trio/Seven Days Of Falling/06. E.S.T. - Believe, Beleft, Below.flac'
p27
aS'/media/dat/mus/Esbj\xc3\xb6rn Svensson Trio/Seven Days Of Falling/03. E.S.T. - Mingle In The Mincing-Machine.flac'
p28
aS'/media/dat/mus/Esbj\xc3\xb6rn Svensson Trio/Seven Days Of Falling/07. E.S.T. - Elevation Of Love.flac'
p29
aS'/media/dat/mus/Esbj\xc3\xb6rn Svensson Trio/Seven Days Of Falling/02. E.S.T. - Seven Days Of Falling.flac'
p30
aS'/media/dat/mus/Esbj\xc3\xb6rn Svensson Trio/Seven Days Of Falling/05. E.S.T. - Did They Ever Tell Cousteau.flac'
p31
aS'/media/dat/mus/Esbj\xc3\xb6rn Svensson Trio/Seven Days Of Falling/01. E.S.T. - Ballad For The Unborn.flac'
p32
aS'/media/dat/mus/Esbj\xc3\xb6rn Svensson Trio/Seven Days Of Falling/08. E.S.T. - In My Garage.flac'
p33
aS"/media/dat/mus/Esbj\xc3\xb6rn Svensson Trio/Seven Days Of Falling/09. E.S.T. - Why She Couldn't Come.flac"
p34
aS'/media/dat/mus/Esbj\xc3\xb6rn Svensson Trio/Seven Days Of Falling/10. E.S.T. - O.D.R.I.P.flac'
p35
aS'/media/dat/mus/Esbj\xc3\xb6rn Svensson Trio/Seven Days Of Falling/04. E.S.T. - Evening In Atlantis.flac'
p36
aS"/media/dat/mus/The Lost Fingers/Lost In The 80's/06 Part Time Lover.mp3"
p37
aS'/media/dat/mus/Avishai Cohen/Continuo/(10) Continuo.flac'
p38
aS'/media/dat/mus/Jamiroquai/A Funk Odyssey/11 - So Good To Feel Real.flac'
p39
aS'/media/dat/mus/Children Of Bodom/[2003] Hate Crew Deathroll/01-Needled 24_7.flac'
p40
aS'/media/dat/mus/Children Of Bodom/[2003] Hate Crew Deathroll/09-Hate Crew Deathroll.flac'
p41
aS'/media/dat/mus/Children Of Bodom/[2006] Stockholm Knockout Live/CD1/08-Bodom After Midnight_Bodom Beach Terror.flac'
p42
aS'/media/dat/mus/Children Of Bodom/[2006] Stockholm Knockout Live/CD2/01-Needled 24_7.flac'
p43
aS'/media/dat/mus/Joseph Arthur/(2002) Junkyard Hearts/Junkyard Hearts III/01-Space Needle.mp3'
p44
aS'/media/dat/mus/Joseph Arthur/(2002) Junkyard Hearts/Junkyard Hearts II/02-Green Of Brooklyn.mp3'
p45
aS'/media/dat/mus/Joseph Arthur/(2002) Junkyard Hearts/Junkyard Hearts II/03-Glue Sniffer.mp3'
p46
aS'/media/dat/mus/Joseph Arthur/(2002) Junkyard Hearts/Junkyard Hearts II/06-Tiny Echoes.mp3'
p47
aS'/media/dat/mus/Joseph Arthur/(2002) Junkyard Hearts/Junkyard Hearts IV/04-Still The Same.mp3'
p48
aS'/media/dat/mus/Joseph Arthur/(2002) Junkyard Hearts/Junkyard Hearts IV/02-Crackerjack Box.mp3'
p49
aS'/media/dat/mus/Joseph Arthur/(2002) Junkyard Hearts/Junkyard Hearts I/01-The Coldest Sea.mp3'
p50
aS'/media/dat/mus/Joseph Arthur/(2002) Junkyard Hearts/Junkyard Hearts I/02-This Heart Will Swallow Us.mp3'
p51
aS"/media/dat/mus/Joseph Arthur/(2002) Redemption's Son/14-In the night.mp3"
p52
aS"/media/dat/mus/Joseph Arthur/(2002) Redemption's Son/15-Blue Lips.mp3"
p53
aS"/media/dat/mus/Joseph Arthur/(2002) Redemption's Son/10-Termite song.mp3"
p54
aS"/media/dat/mus/Joseph Arthur/(2002) Redemption's Son/04-I would rather hide.mp3"
p55
aS"/media/dat/mus/Joseph Arthur/(2002) Redemption's Son/08-Evidence.mp3"
p56
aS"/media/dat/mus/Joseph Arthur/(2002) Redemption's Son/01-Redemption's son.mp3"
p57
aS"/media/dat/mus/Joseph Arthur/(2002) Redemption's Son/12-Favorite girl.mp3"
p58
aS"/media/dat/mus/Joseph Arthur/(2002) Redemption's Son/05-Innocent world.mp3"
p59
aS"/media/dat/mus/Joseph Arthur/(2002) Redemption's Son/07-Nation of slaves.mp3"
p60
aS"/media/dat/mus/Joseph Arthur/(2002) Redemption's Son/16-You've been loved.mp3"
p61
aS"/media/dat/mus/Joseph Arthur/(2002) Redemption's Son/09-Buy A Bag.mp3"
p62
aS"/media/dat/mus/Joseph Arthur/(2002) Redemption's Son/11-Permission.mp3"
p63
aS"/media/dat/mus/Joseph Arthur/(2002) Redemption's Son/13-You Are The Dark.mp3"
p64
aS"/media/dat/mus/Joseph Arthur/(2002) Redemption's Son/06-September baby.mp3"
p65
aS'/media/dat/mus/Joseph Arthur/(1997) Big City Secrets/09-Porcupine.mp3'
p66
aS'/media/dat/mus/Joseph Arthur/(2004) Our Shadows Will Remain/06-even tho.mp3'
p67
aS'/media/dat/mus/Joseph Arthur/(2004) Our Shadows Will Remain/07-puppets.mp3'
p68
aS"/media/dat/mus/Joseph Arthur/(2000) Come To Where I'm From/12-Speed Of Light.mp3"
p69
aS"/media/dat/mus/Joseph Arthur/(2000) Come To Where I'm From/11-Creation Or A Stain.mp3"
p70
aS"/media/dat/mus/Joseph Arthur/(2000) Come To Where I'm From/01-In The Sun.mp3"
p71
aS"/media/dat/mus/Joseph Arthur/(2000) Come To Where I'm From/09-Tattoo.mp3"
p72
aS"/media/dat/mus/Joseph Arthur/(2000) Come To Where I'm From/07-Exhausted.mp3"
p73
aS"/media/dat/mus/Joseph Arthur/(2000) Come To Where I'm From/08-Eyes On My Back.mp3"
p74
aS"/media/dat/mus/Joseph Arthur/(2000) Come To Where I'm From/05-Invisible Hands.mp3"
p75
aS"/media/dat/mus/Joseph Arthur/(2000) Come To Where I'm From/04-History.mp3"
p76
aS'/media/dat/mus/Boris Vian/Le d\xc3\xa9serteur.flac'
p77
aS'/media/dat/mus/Boris Vian/Juste le temps de vivre - po\xc3\xa8me.flac'
p78
aS'/media/dat/mus/Boris Vian/Fais-moi mal Johnny.flac'
p79
aS'/media/dat/mus/Boris Vian/Complainte du progr\xc3\xa8s.flac'
p80
aS"/media/dat/mus/Boris Vian/On n'est pas l\xc3\xa0 pour se faire eng....flac"
p81
aS'/media/dat/mus/Boris Vian/Les joyeux bouchers.flac'
p82
aS'/media/dat/mus/Boris Vian/Je suis snob.flac'
p83
aS'/media/dat/mus/Boris Vian/Je bois.flac'
p84
aS'/media/dat/mus/Boris Vian/Cin\xc3\xa9matographe.flac'
p85
aS'/media/dat/mus/Boris Vian/Bourr\xc3\xa9e de complexes.flac'
p86
aS'/media/dat/mus/Area/Crac!/Area - Crac!.flac'
p87
aS'/media/dat/mus/Area/Crac!/._Area - Crac!.flac'
p88
aS'/media/dat/mus/Stevie Ray Vaughan/Double Trouble - The Sky Is Crying/08 - Chitlins Con Carne.flac'
p89
aS'/media/dat/mus/Stevie Ray Vaughan/Double Trouble - The Sky Is Crying/05 - Wham.flac'
p90
aS"/media/dat/mus/Quantic/Quantic & Quantic Soul Orchestra Complete Discography/Quantic Soul Orchestra/Quantic Soul Orchestra - Super 8 7'' (2001)/Super 8 Part 2.mp3"
p91
aS"/media/dat/mus/Quantic/Quantic & Quantic Soul Orchestra Complete Discography/Quantic Soul Orchestra/Quantic Soul Orchestra - Babaratiri.The Conspirator 7'' (2003)/TRU055-b1- Quantic Soul Orchestra - The conspirator.mp3"
p92
aS'/media/dat/mus/Quantic/Quantic & Quantic Soul Orchestra Complete Discography/Quantic Soul Orchestra/Quantic Soul Orchestra - Tropidelico (2007)/10--who_knows_(feat. kabir).mp3'
p93
aS'/media/dat/mus/Quantic/Quantic & Quantic Soul Orchestra Complete Discography/Quantic Soul Orchestra/Quantic Soul Orchestra - Tropidelico (2007)/03-she_said_what_ (feat. j-live).mp3'
p94
aS'/media/dat/mus/Quantic/Quantic & Quantic Soul Orchestra Complete Discography/Quantic Soul Orchestra/Quantic Soul Orchestra - Tropidelico (2007)/09--marrakech.mp3'
p95
aS'/media/dat/mus/Quantic/Quantic & Quantic Soul Orchestra Complete Discography/Quantic Soul Orchestra/Quantic Soul Orchestra - Tropidelico (2007)/07- lead_us_to_the_end (feat.noelle_scaggs).mp3'
p96
aS"/media/dat/mus/Quantic/Quantic & Quantic Soul Orchestra Complete Discography/Quantic Soul Orchestra/Spanky Wilson & Quantic Soul Orchestra - I'm Thankful (2006)/09 You Can't Judge A Book By It's Co.mp3"
p97
aS"/media/dat/mus/Quantic/Quantic & Quantic Soul Orchestra Complete Discography/Quantic Soul Orchestra/Spanky Wilson & Quantic Soul Orchestra - I'm Thankful (2006)/01 I'm Thankful Pt. 1.mp3"
p98
aS"/media/dat/mus/Quantic/Quantic & Quantic Soul Orchestra Complete Discography/Quantic Soul Orchestra/Spanky Wilson & Quantic Soul Orchestra - I'm Thankful (2006)/10 I'm Thankful Pt. 2 (Inst.).mp3"
p99
aS"/media/dat/mus/Quantic/Quantic & Quantic Soul Orchestra Complete Discography/Quantic Soul Orchestra/Spanky Wilson & Quantic Soul Orchestra - I'm Thankful (2006)/04 Don't Joke With A Hungry Man Pt..mp3"
p100
aS"/media/dat/mus/Quantic/Quantic & Quantic Soul Orchestra Complete Discography/Quantic Soul Orchestra/Spanky Wilson & Quantic Soul Orchestra - I'm Thankful (2006)/03 Blood From A Stone.mp3"
p101
aS"/media/dat/mus/Quantic/Quantic & Quantic Soul Orchestra Complete Discography/Quantic Soul Orchestra/Spanky Wilson & Quantic Soul Orchestra - I'm Thankful (2006)/07 Message To Tomorrow.mp3"
p102
aS"/media/dat/mus/Quantic/Quantic & Quantic Soul Orchestra Complete Discography/Quantic Soul Orchestra/Spanky Wilson & Quantic Soul Orchestra - I'm Thankful (2006)/06 That's How It Was.mp3"
p103
aS"/media/dat/mus/Quantic/Quantic & Quantic Soul Orchestra Complete Discography/Quantic Soul Orchestra/Spanky Wilson & Quantic Soul Orchestra - I'm Thankful (2006)/05 Don't Joke With A Hungry Man Pt..mp3"
p104
aS"/media/dat/mus/Quantic/Quantic & Quantic Soul Orchestra Complete Discography/Quantic Soul Orchestra/Spanky Wilson & Quantic Soul Orchestra - I'm Thankful (2006)/08 Waiting For Your Touch.mp3"
p105
aS"/media/dat/mus/Quantic/Quantic & Quantic Soul Orchestra Complete Discography/Quantic/Quantic - One Off's Remixes And B Sides (2006)/1-07 - Pain\xc3\xa9 - Bene (Quantic Mix).mp3"
p106
aS'/media/dat/mus/Quantic/Quantic & Quantic Soul Orchestra Complete Discography/Quantic/Quantic - Mishaps Happening (2004)/Quantic MH - Happening.mp3'
p107
aS'/media/dat/mus/Quantic/Quantic & Quantic Soul Orchestra Complete Discography/Quantic/Quantic - Mishaps Happening (2004)/Quantic MH - What You Got.mp3'
p108
aS'/media/dat/mus/Quantic/Quantic & Quantic Soul Orchestra Complete Discography/Quantic/Quantic - Mishaps Happening (2004)/Quantic MH - Trees and Seas.mp3'
p109
aS'/media/dat/mus/Quantic/Quantic & Quantic Soul Orchestra Complete Discography/Quantic/Quantic - Mishaps Happening (2004)/Quantic MH - Prelude.mp3'
p110
aS'/media/dat/mus/Quantic/Quantic & Quantic Soul Orchestra Complete Discography/Quantic/Quantic - Mishaps Happening (2004)/Quantic MH - Perception.mp3'
p111
aS'/media/dat/mus/Quantic/Quantic & Quantic Soul Orchestra Complete Discography/Quantic/Quantic - Mishaps Happening (2004)/Quantic MH - Sound of ETG.mp3'
p112
aS'/media/dat/mus/Quantic/Quantic & Quantic Soul Orchestra Complete Discography/Quantic/Quantic - Mishaps Happening (2004)/Quantic MH - Angels .mp3'
p113
aS'/media/dat/mus/Quantic/Quantic & Quantic Soul Orchestra Complete Discography/Quantic/Quantic - Mishaps Happening (2004)/Quantic MH - Through.mp3'
p114
aS'/media/dat/mus/Quantic/Quantic & Quantic Soul Orchestra Complete Discography/Quantic/Quantic - Mishaps Happening (2004)/Shapes3 - Quantic Soul.mp3'
p115
aS'/media/dat/mus/Quantic/Quantic & Quantic Soul Orchestra Complete Discography/Quantic/Quantic - Mishaps Happening (2004)/Quantic MH - Moment.mp3'
p116
aS'/media/dat/mus/Quantic/Quantic & Quantic Soul Orchestra Complete Discography/Quantic/Quantic - Mishaps Happening (2004)/Quantic MH - So Long.mp3'
p117
aS'/media/dat/mus/Quantic/Quantic & Quantic Soul Orchestra Complete Discography/Quantic/Quantic - Mishaps Happening (2004)/Quantic MH - Hungry Man.mp3'
p118
aS'/media/dat/mus/Quantic/Quantic & Quantic Soul Orchestra Complete Discography/Quantic/Quantic - Mishaps Happening (2004)/Shapes3 - Quantic Remix.mp3'
p119
aS'/media/dat/mus/Quantic/Quantic & Quantic Soul Orchestra Complete Discography/Quantic/Quantic - 5th Exotic (2001)/Quantic - 5th Exotic - The 5th Exotic.mp3'
p120
aS'/media/dat/mus/Quantic/Quantic & Quantic Soul Orchestra Complete Discography/Quantic/Quantic - 5th Exotic (2001)/Quantic - 5th Exotic - The Picture Inside.mp3'
p121
aS'/media/dat/mus/Quantic/Quantic & Quantic Soul Orchestra Complete Discography/Quantic/Quantic - 5th Exotic (2001)/Quantic - 5th Exotic - Long Road Ahead.mp3'
p122
aS'/media/dat/mus/Quantic/Quantic & Quantic Soul Orchestra Complete Discography/Quantic/Quantic - 5th Exotic (2001)/Quantic - 5th Exotic - In The Key of Blue.mp3'
p123
aS'/media/dat/mus/Quantic/Quantic & Quantic Soul Orchestra Complete Discography/Quantic/Quantic - 5th Exotic (2001)/Quantic - 5th Exotic - Snakes in the Grass.mp3'
p124
aS'/media/dat/mus/Quantic/Quantic & Quantic Soul Orchestra Complete Discography/Quantic/Quantic - 5th Exotic (2001)/Quantic - 5th Exotic - Life in the Rain.mp3'
p125
aS'/media/dat/mus/Quantic/Quantic & Quantic Soul Orchestra Complete Discography/Quantic/Quantic - 5th Exotic (2001)/Quantic - 5th Exotic - Time is Ennemy.mp3'
p126
aS'/media/dat/mus/Quantic/Quantic & Quantic Soul Orchestra Complete Discography/Quantic/Quantic - 5th Exotic (2001)/Quantic - 5th Exotic - Common Knowledge.mp3'
p127
aS'/media/dat/mus/Quantic/Quantic & Quantic Soul Orchestra Complete Discography/Quantic/Quantic - 5th Exotic (2001)/Quantic - 5th Exotic - Infinite Regression.mp3'
p128
aS'/media/dat/mus/Quantic/Quantic & Quantic Soul Orchestra Complete Discography/Quantic/Quantic - 5th Exotic (2001)/Quantic - 5th Exotic - Introduction.mp3'
p129
aS'/media/dat/mus/Quantic/Quantic & Quantic Soul Orchestra Complete Discography/Quantic/Quantic - 5th Exotic (2001)/Quantic - 5th Exotic - Meaning.mp3'
p130
aS"/media/dat/mus/Quantic/Quantic & Quantic Soul Orchestra Complete Discography/Quantic/Quantic - Sweet Calling 12'' (2002)/a1 - Sweet Calling (album version).mp3"
p131
aS"/media/dat/mus/Quantic/Quantic & Quantic Soul Orchestra Complete Discography/Quantic/Quantic - Sweet Calling 12'' (2002)/a2 - sweet calling (radio version).mp3"
p132
aS"/media/dat/mus/Quantic/Quantic & Quantic Soul Orchestra Complete Discography/Quantic/Quantic - Sweet Calling 12'' (2002)/aa2 - sweet calling (accapella).mp3"
p133
aS"/media/dat/mus/Quantic/Quantic & Quantic Soul Orchestra Complete Discography/Quantic/Quantic - Sweet Calling 12'' (2002)/aa1 - sweet calling (instrumental).mp3"
p134
aS'/media/dat/mus/Quantic/Quantic & Quantic Soul Orchestra Complete Discography/Quantic/Quantic - Apricot Morning (2002)/Quantic - Sweet Calling.mp3'
p135
aS'/media/dat/mus/Quantic/Quantic & Quantic Soul Orchestra Complete Discography/Quantic/Quantic - Apricot Morning (2002)/Quantic - Wider Sky.mp3'
p136
aS'/media/dat/mus/Quantic/Quantic & Quantic Soul Orchestra Complete Discography/Quantic/Quantic - Apricot Morning (2002)/Quantic - Apricot Morning.mp3'
p137
aS'/media/dat/mus/Quantic/Quantic & Quantic Soul Orchestra Complete Discography/Quantic/Quantic - Apricot Morning (2002)/Quantic - Beaten Track.mp3'
p138
aS'/media/dat/mus/Quantic/Quantic & Quantic Soul Orchestra Complete Discography/Quantic/Quantic - Apricot Morning (2002)/Quantic - Blackstone Rock.mp3'
p139
aS'/media/dat/mus/Quantic/Quantic & Quantic Soul Orchestra Complete Discography/Quantic/Quantic - Apricot Morning (2002)/Quantic - The River.mp3'
p140
aS'/media/dat/mus/Quantic/Quantic & Quantic Soul Orchestra Complete Discography/Quantic/Quantic - Apricot Morning (2002)/Quantic - Primate Bungaloo.mp3'
p141
aS'/media/dat/mus/Quantic/Quantic & Quantic Soul Orchestra Complete Discography/Quantic/Quantic - Apricot Morning (2002)/Quantic - Transatlantic.mp3'
p142
aS'/media/dat/mus/Quantic/Quantic & Quantic Soul Orchestra Complete Discography/Quantic/Quantic - Apricot Morning (2002)/Quantic - Watusi.mp3'
p143
aS'/media/dat/mus/Quantic/Quantic & Quantic Soul Orchestra Complete Discography/Quantic/Quantic - Apricot Morning (2002)/Quantic - Heavens.mp3'
p144
aS'/media/dat/mus/Quantic/Quantic & Quantic Soul Orchestra Complete Discography/Quantic/Quantic - Apricot Morning (2002)/Quantic - Not So Blue.mp3'
p145
aS"/media/dat/mus/Quantic/Quantic & Quantic Soul Orchestra Complete Discography/Quantic/Quantic - Primate Boogaloo 12''  (2002)/02-quantic_-_primate_boogaloo_(evil_ed_mix)-nbd.mp3"
p146
aS"/media/dat/mus/Quantic/Quantic & Quantic Soul Orchestra Complete Discography/Quantic/Quantic - Primate Boogaloo 12''  (2002)/04-quantic_-_primate_boogaloo_(quantic_mix)-nbd.mp3"
p147
aS"/media/dat/mus/Quantic/Quantic & Quantic Soul Orchestra Complete Discography/Quantic/Quantic - Primate Boogaloo 12''  (2002)/03-quantic_-_primate_boogaloo_(quantic_inst-nbd.mp3"
p148
aS"/media/dat/mus/Quantic/Quantic & Quantic Soul Orchestra Complete Discography/Quantic/Quantic - Primate Boogaloo 12''  (2002)/05-quantic_-_primate_boogaloo_(natural_self_mix)-nbd.mp3"
p149
aS"/media/dat/mus/Quantic/Quantic & Quantic Soul Orchestra Complete Discography/Quantic/Quantic - Primate Boogaloo 12''  (2002)/06-quantic_-_primate_boogaloo_(accapella)-nbd.mp3"
p150
aS"/media/dat/mus/Quantic/Quantic & Quantic Soul Orchestra Complete Discography/The Limp Twins/The Limp Twins - Elemental 7'' (2003)/A1   Zanya.mp3"
p151
aS"/media/dat/mus/Quantic/Quantic & Quantic Soul Orchestra Complete Discography/The Limp Twins/The Limp Twins - Elemental 7'' (2003)/B1   Another Day in the Life of Mr Jones.mp3"
p152
aS"/media/dat/mus/Quantic/Quantic & Quantic Soul Orchestra Complete Discography/The Limp Twins/The Limp Twins - Elemental 7'' (2003)/A1   Elemental.mp3"
p153
aS'/media/dat/mus/Morcheeba/Charango/Morcheeba - Charango - 04. S\xc4\x83o Paulo.flac'
p154
aS'/media/dat/mus/Gotan Project/Lun\xc3\xa1tico/Disc 2/03 - Arrabal (Haaksman & Haaksman Remix feat. Ras Donovan).flac'
p155
aS'/media/dat/mus/Gotan Project/Lun\xc3\xa1tico/Disc 2/02 - Santa Mar\xc3\xada [Del Buen Ayre] (Live At KCRW Radio).flac'
p156
aS'/media/dat/mus/Gotan Project/Lun\xc3\xa1tico/Disc 2/01 - El Norte.flac'
p157
aS'/media/dat/mus/Gotan Project/Lun\xc3\xa1tico/Disc 1/01 - Amor Porte\xc3\xb1o.flac'
p158
aS'/media/dat/mus/Gotan Project/Lun\xc3\xa1tico/Disc 1/11 - Domingo.flac'
p159
aS'/media/dat/mus/Gotan Project/Lun\xc3\xa1tico/Disc 1/05 - Lun\xc3\xa1tico.flac'
p160
aS'/media/dat/mus/Gotan Project/Lun\xc3\xa1tico/Disc 1/09 - Criminal.flac'
p161
aS'/media/dat/mus/Gotan Project/Lun\xc3\xa1tico/Disc 1/10 - Arrabal.flac'
p162
aS'/media/dat/mus/Gotan Project/Lun\xc3\xa1tico/Disc 1/03 - Diferente.flac'
p163
aS'/media/dat/mus/Gotan Project/Lun\xc3\xa1tico/Disc 1/02 - Notas.flac'
p164
aS'/media/dat/mus/Gotan Project/Lun\xc3\xa1tico/Disc 1/06 - Mi Confesi\xc3\xb3n.flac'
p165
aS'/media/dat/mus/Gotan Project/Lun\xc3\xa1tico/Disc 1/04 - Celos.flac'
p166
aS'/media/dat/mus/Gotan Project/Lun\xc3\xa1tico/Disc 1/08 - La Vig\xc3\xbcela.flac'
p167
aS'/media/dat/mus/Gotan Project/Lun\xc3\xa1tico/Disc 1/07 - Tango Canci\xc3\xb3n.flac'
p168
aS'/media/dat/mus/Gotan Project/Lun\xc3\xa1tico/Disc 1/12 - Paris, Texas.flac'
p169
aS'/media/dat/mus/Gotan Project/La Revancha Del Tango/02 epoca\xc3\xa9poca.flac'
p170
aS'/media/dat/mus/Marillion/Script For A Jesters Tears (9624 ND)/Marillion - Script for a jesters tears.flac'
p171
aS'/media/dat/mus/Dire Straits/Dire Straits - Communiqu\xc3\xa9/Dire Straits - Communiqu\xc3\xa9/05 - Lady Writer.flac'
p172
aS"/media/dat/mus/Dire Straits/Dire Straits - Communiqu\xc3\xa9/Dire Straits - Communiqu\xc3\xa9/03 - Where Do You Think You're Going.flac"
p173
aS'/media/dat/mus/Dire Straits/Dire Straits - Communiqu\xc3\xa9/Dire Straits - Communiqu\xc3\xa9/02 - News.flac'
p174
aS'/media/dat/mus/Dire Straits/Dire Straits - Communiqu\xc3\xa9/Dire Straits - Communiqu\xc3\xa9/04 - Communiqu\xc3\xa9.flac'
p175
aS'/media/dat/mus/Dire Straits/Dire Straits - Communiqu\xc3\xa9/Dire Straits - Communiqu\xc3\xa9/09 - Follow Me Home.flac'
p176
aS'/media/dat/mus/Dire Straits/Dire Straits - Communiqu\xc3\xa9/Dire Straits - Communiqu\xc3\xa9/01 - Once Upon a Time in the West.flac'
p177
aS'/media/dat/mus/Dire Straits/Dire Straits - Communiqu\xc3\xa9/Dire Straits - Communiqu\xc3\xa9/06 - Angel of Mercy.flac'
p178
aS'/media/dat/mus/Dire Straits/Dire Straits - Communiqu\xc3\xa9/Dire Straits - Communiqu\xc3\xa9/07 - Portobello Belle.flac'
p179
aS'/media/dat/mus/Dire Straits/Dire Straits - Communiqu\xc3\xa9/Dire Straits - Communiqu\xc3\xa9/08 - Single Handed Sailor.flac'
p180
aS'/media/dat/mus/Moonspell/2007 - Under Satanae/(06)- Chorai Lusit\xd0\xb2nia! (Epilogus-Incantatam Maresia).flac'
p181
aS'/media/dat/mus/In Flames/Lunar Strain/08. H\xc3\xa5rgal\xc3\xa5ten.flac'
p182
aS'/media/dat/mus/Arkasia/Arkasia - Evolution (2011)/02. Arkasia & PIXL - Act Now.mp3'
p183
aS'/media/dat/mus/Arkasia/Arkasia - Evolution (2011)/01. Arkasia - Destiny.mp3'
p184
aS'/media/dat/mus/Arkasia/Arkasia - Evolution (2011)/08. Arkasia - The Uprising Freedom.mp3'
p185
aS'/media/dat/mus/Arkasia/Arkasia - Evolution (2011)/03. Arkasia - New World Disorder.mp3'
p186
aS'/media/dat/mus/Arkasia/Arkasia - Evolution (2011)/09. Arkasia - Hope(Less).mp3'
p187
aS'/media/dat/mus/Arkasia/Arkasia - Evolution (2011)/07. Arkasia - Pandemonium.mp3'
p188
aS'/media/dat/mus/Arkasia/Arkasia - Evolution (2011)/06. Arkasia - Evolution.mp3'
p189
aS'/media/dat/mus/Arkasia/Arkasia - Evolution (2011)/05. Arkasia & A Few Seasons Later - The Awakening.mp3'
p190
aS'/media/dat/mus/Arkasia/Arkasia - Evolution (2011)/04. Arkasia - Fall Of The Republic.mp3'
p191
aS'/media/dat/mus/Godsmack/The Other Side/03 Godsmack - Touch\xc3\xa9.flac'
p192
aS'/media/dat/mus/Daniel B\xc3\xa9langer/Quatre Saisons Dans le D\xc3\xa9sordre/09 Imparfait.flac'
p193
aS'/media/dat/mus/Daniel B\xc3\xa9langer/Quatre Saisons Dans le D\xc3\xa9sordre/04 Monsieur verb\xc3\xaatre.flac'
p194
aS'/media/dat/mus/Daniel B\xc3\xa9langer/Quatre Saisons Dans le D\xc3\xa9sordre/11 Je fais de moi un homme.flac'
p195
aS'/media/dat/mus/Daniel B\xc3\xa9langer/Quatre Saisons Dans le D\xc3\xa9sordre/03 Les deux printemps.flac'
p196
aS'/media/dat/mus/Daniel B\xc3\xa9langer/Quatre Saisons Dans le D\xc3\xa9sordre/07 La voie lact\xc3\xa9e.flac'
p197
aS'/media/dat/mus/Daniel B\xc3\xa9langer/Quatre Saisons Dans le D\xc3\xa9sordre/02 Sortez-moi de moi.flac'
p198
aS"/media/dat/mus/Daniel B\xc3\xa9langer/Quatre Saisons Dans le D\xc3\xa9sordre/05 Respirer dans l'eau.flac"
p199
aS'/media/dat/mus/Daniel B\xc3\xa9langer/Quatre Saisons Dans le D\xc3\xa9sordre/13 Primate \xc3\xa9lectrique.flac'
p200
aS'/media/dat/mus/Daniel B\xc3\xa9langer/Quatre Saisons Dans le D\xc3\xa9sordre/08 Les temps fous.flac'
p201
aS'/media/dat/mus/Daniel B\xc3\xa9langer/Quatre Saisons Dans le D\xc3\xa9sordre/06 Cruel (Il fait froid, on g\xc3\xa8le).flac'
p202
aS'/media/dat/mus/Daniel B\xc3\xa9langer/Quatre Saisons Dans le D\xc3\xa9sordre/01 Quatre saisons dans le d\xc3\xa9sordre.flac'
p203
aS'/media/dat/mus/Daniel B\xc3\xa9langer/Quatre Saisons Dans le D\xc3\xa9sordre/12 Projection dans le bleu.flac'
p204
aS'/media/dat/mus/Daniel B\xc3\xa9langer/Quatre Saisons Dans le D\xc3\xa9sordre/10 Le parapluie.flac'
p205
aS"/media/dat/mus/Daniel B\xc3\xa9langer/Les Insomniaques s'amusent/06 - Opium.flac"
p206
aS"/media/dat/mus/Daniel B\xc3\xa9langer/Les Insomniaques s'amusent/11 - L'autruche.flac"
p207
aS"/media/dat/mus/Daniel B\xc3\xa9langer/Les Insomniaques s'amusent/05 - Ma dependance.flac"
p208
aS"/media/dat/mus/Daniel B\xc3\xa9langer/Les Insomniaques s'amusent/07 - Quand le jour se leve.flac"
p209
aS"/media/dat/mus/Daniel B\xc3\xa9langer/Les Insomniaques s'amusent/01 - La folie en quatre.flac"
p210
aS"/media/dat/mus/Daniel B\xc3\xa9langer/Les Insomniaques s'amusent/10 - Mon retour.flac"
p211
aS"/media/dat/mus/Daniel B\xc3\xa9langer/Les Insomniaques s'amusent/04 - Desesperee.flac"
p212
aS"/media/dat/mus/Daniel B\xc3\xa9langer/Les Insomniaques s'amusent/09 - Jamais les heures.flac"
p213
aS"/media/dat/mus/Daniel B\xc3\xa9langer/Les Insomniaques s'amusent/02 - Ensorcelee.flac"
p214
aS"/media/dat/mus/Daniel B\xc3\xa9langer/Les Insomniaques s'amusent/03 - Seche tes pleurs.flac"
p215
aS"/media/dat/mus/Daniel B\xc3\xa9langer/Les Insomniaques s'amusent/08 - Le bonheur.flac"
p216
aS'/media/dat/mus/LisaLeblanc/05 C\xc3\xa2lisse-moi l\xc3\xa0.flac'
p217
aS'/media/dat/mus/LisaLeblanc/13 Aujourd\xe2\x80\x99hui_ ma vie c\xe2\x80\x99est d\xe2\x80\x99la marde.flac'
p218
aS'/media/dat/mus/LisaLeblanc/08 Lignes d\xe2\x80\x99Hydro.flac'
p219
aS'/media/dat/mus/LisaLeblanc/04 Juste parce que j\xe2\x80\x99peux.flac'
p220
aS'/media/dat/mus/LisaLeblanc/12 J\xe2\x80\x99t\xe2\x80\x99\xc3\xa9cris une chanson d\xe2\x80\x99amour.flac'
p221
aS'/media/dat/mus/LisaLeblanc/07 Chanson d\xe2\x80\x99une rousp\xc3\xa9teuse.flac'
p222
aS'/media/dat/mus/LisaLeblanc/06 J\xe2\x80\x99pas un cowboy.flac'
p223
aS'/media/dat/mus/George Harrison/GEORGE HARRISONt - BEST OF DARK HORSE.flac'
p224
aS'/media/dat/mus/Karkwa/Les Chemins De Verre/08 - La Piq\xd1\x8bre.mp3'
p225
aS'/media/dat/mus/Karkwa/Les Chemins De Verre/03 - Moi- L\xd0\xb9ger.mp3'
p226
aS"/media/dat/mus/Karkwa/Les Chemins De Verre/02 - L'Acouph\xd0\xb8ne.mp3"
p227
aS'/media/dat/mus/Karkwa/Les Chemins De Verre/10 - Au-Dessus De La T\xd0\xbate De Lili-June.mp3'
p228
aS'/media/dat/mus/Beck/2005 - Guerolito/(02) [Beck] Qu\xc4\xba Onda Guero.flac'
p229
aS'/media/dat/mus/Beck/Beck - Record Club 2 - Songs of Leonard Cohen (flac)/Beck - Record Club 2 - Songs of Leonard Cohen (flac)/06 So Long, Marianne.flac'
p230
aS'/media/dat/mus/Beck/Beck - Record Club 2 - Songs of Leonard Cohen (flac)/Beck - Record Club 2 - Songs of Leonard Cohen (flac)/03 Winter Lady.flac'
p231
aS'/media/dat/mus/Beck/Beck - Modern Guilt acoustic (flac)/Beck - Modern Guilt acoustic (flac)/05 Youthless.flac'
p232
aS'/media/dat/mus/Beck/Beck - Modern Guilt acoustic (flac)/Beck - Modern Guilt acoustic (flac)/02 Gamma Ray.flac'
p233
aS'/media/dat/mus/Beck/Beck - Modern Guilt acoustic (flac)/Beck - Modern Guilt acoustic (flac)/03 Chemtrails.flac'
p234
aS'/media/dat/mus/Beck/Beck - Modern Guilt acoustic (flac)/Beck - Modern Guilt acoustic (flac)/08 Soul of a Man.flac'
p235
aS'/media/dat/mus/Beck/Beck - Modern Guilt acoustic (flac)/Beck - Modern Guilt acoustic (flac)/09 Profanity Prayers.flac'
p236
aS'/media/dat/mus/Beck/Beck - Modern Guilt acoustic (flac)/Beck - Modern Guilt acoustic (flac)/06 Walls.flac'
p237
aS'/media/dat/mus/Beck/Beck - Modern Guilt acoustic (flac)/Beck - Modern Guilt acoustic (flac)/01 Orphans.flac'
p238
aS'/media/dat/mus/Beck/Beck - Modern Guilt acoustic (flac)/Beck - Modern Guilt acoustic (flac)/07 Replica.flac'
p239
aS'/media/dat/mus/Beck/Beck - Modern Guilt acoustic (flac)/Beck - Modern Guilt acoustic (flac)/10 Volcano.flac'
p240
aS'/media/dat/mus/Beck/Beck - Modern Guilt acoustic (flac)/Beck - Modern Guilt acoustic (flac)/04 Modern Guilt.flac'
p241
aS'/media/dat/mus/Beck/Beck - Record Club 1 - Velvet Underground and Nico (flac)/05 Run Run Run.flac'
p242
aS'/media/dat/mus/Beck/Beck - Record Club 1 - Velvet Underground and Nico (flac)/11 European Son.flac'
p243
aS'/media/dat/mus/Beck/Beck - Record Club 1 - Velvet Underground and Nico (flac)/07 Heroin.flac'
p244
aS"/media/dat/mus/Kormac/Migrations Radio Show #272 - Part 1 - Mr Goju's Showtime.mp3"
p245
aS'/media/dat/mus/Kormac/Kormac - Studio Sorcery [Scribble Records].mp3'
p246
aS'/media/dat/mus/Kormac/Kormac - Show Time (Single Mix) [Scribble Records].mp3'
p247
aS'/media/dat/mus/Kormac/2008 - Good Lord EP/- Kormac\xc2\xb4s House.mp3'
p248
aS'/media/dat/mus/Lilly Allen - Allright Still/Oh My God (Kaiser Chiefs Cover).mp3'
p249
aS'/media/dat/mus/R\xc3\xb6yksopp - Melody A.M/Melody AM/08-Remind Me.flac'
p250
aS"/media/dat/mus/R\xc3\xb6yksopp - Melody A.M/Melody AM/07-Royksopp's Night Out.flac"
p251
aS'/media/dat/mus/R\xc3\xb6yksopp - Melody A.M/Melody AM/03-Sparks.flac'
p252
aS'/media/dat/mus/R\xc3\xb6yksopp - Melody A.M/Melody AM/01-So Easy.flac'
p253
aS'/media/dat/mus/R\xc3\xb6yksopp - Melody A.M/Melody AM/06-A Higher Place.flac'
p254
aS'/media/dat/mus/R\xc3\xb6yksopp - Melody A.M/Melody AM/10-40 Years Back-Come.flac'
p255
aS'/media/dat/mus/R\xc3\xb6yksopp - Melody A.M/Melody AM/04-In Space.flac'
p256
aS"/media/dat/mus/R\xc3\xb6yksopp - Melody A.M/Melody AM/09-She's So.flac"
p257
aS'/media/dat/mus/R\xc3\xb6yksopp - Melody A.M/Melody AM/05-Poor Leno.flac'
p258
aS'/media/dat/mus/R\xc3\xb6yksopp - Melody A.M/Melody AM/02-Eple.flac'
p259
aS'/media/dat/mus/Mazzy Star/Mazzy Star - She Hangs Brightly (1990) [FLAC]/04 - She Hangs Brightly.flac'
p260
aS'/media/dat/mus/Mazzy Star/Mazzy Star - She Hangs Brightly (1990) [FLAC]/06 - Give You My Lovin.flac'
p261
aS'/media/dat/mus/Mazzy Star/Mazzy Star - She Hangs Brightly (1990) [FLAC]/09 - Ghost Highway.flac'
p262
aS'/media/dat/mus/Mazzy Star/Mazzy Star - She Hangs Brightly (1990) [FLAC]/03 - Ride It On.flac'
p263
aS'/media/dat/mus/Mazzy Star/Mazzy Star - She Hangs Brightly (1990) [FLAC]/11 - Before I Sleep.flac'
p264
aS"/media/dat/mus/Mazzy Star/Mazzy Star - She Hangs Brightly (1990) [FLAC]/05 - I'm Sailin.flac"
p265
aS'/media/dat/mus/Mazzy Star/Mazzy Star - She Hangs Brightly (1990) [FLAC]/07 - Be My Angel.flac'
p266
aS'/media/dat/mus/Chinese Man/2007 - The Groove Sessions/06 - I\xc2\xb4ve Got That Tune.mp3'
p267
aS'/media/dat/mus/Chinese Man/2009 - The Groove Sessions Vol.2/10 - He Said.flac'
p268
aS'/media/dat/mus/Chinese Man/2009 - The Groove Sessions Vol.2/09 - Batteries Not Inculded Ft. Plex & Lush One.flac'
p269
aS'/media/dat/mus/Chinese Man/2009 - The Groove Sessions Vol.2/03 - Elysean Fields.flac'
p270
aS'/media/dat/mus/Chinese Man/2009 - The Groove Sessions Vol.2/14 - Outro.flac'
p271
aS'/media/dat/mus/Chinese Man/2009 - The Groove Sessions Vol.2/12 - Femi Kuti - Day By Day (Chinese Man Remix).flac'
p272
aS'/media/dat/mus/Chinese Man/2009 - The Groove Sessions Vol.2/13 - Ayoyo Na Macumbinha (DJ Sandriho Remix).flac'
p273
aS"/media/dat/mus/Chinese Man/2009 - The Groove Sessions Vol.2/05 - Jumpin' In Havana.flac"
p274
aS'/media/dat/mus/Chinese Man/2009 - The Groove Sessions Vol.2/11 - Our Time Ft. Franco.flac'
p275
aS'/media/dat/mus/Chinese Man/2009 - The Groove Sessions Vol.2/07 - Ordinary Man Ft. White Jive.flac'
p276
aS'/media/dat/mus/Chinese Man/2009 - The Groove Sessions Vol.2/08 - Ayoyo.flac'
p277
aS'/media/dat/mus/Chinese Man/2009 - The Groove Sessions Vol.2/02 - Calling Bombay.flac'
p278
aS'/media/dat/mus/Chinese Man/2009 - The Groove Sessions Vol.2/06 - 7th Street.flac'
p279
aS'/media/dat/mus/Chinese Man/2009 - The Groove Sessions Vol.2/04 - Post Trauma Ft. Cyph4.flac'
p280
aS'/media/dat/mus/Chinese Man/2009 - The Groove Sessions Vol.2/01 - Intro.flac'
p281
aS'/media/dat/mus/Pink Floyd/1973 - The Dark Side Of The Moon/08-Any Colour You Like.flac'
p282
aS'/media/dat/mus/Pink Floyd/1973 - The Dark Side Of The Moon/07-Us And Them.flac'
p283
aS'/media/dat/mus/Pink Floyd/1970 - Atom Heart Mother/02-If.flac'
p284
aS'/media/dat/mus/Pink Floyd/1970 - Atom Heart Mother/04-Fat Old Sun.flac'
p285
aS"/media/dat/mus/Pink Floyd/1970 - Atom Heart Mother/05-Alan's Psychedelic Breakfast.flac"
p286
aS'/media/dat/mus/Pantera/PANTERA [1983] Metal Magic [EAC-APE]/Metal Magic.flac'
p287
aS'/media/dat/mus/Pantera/PANTERA [1988] Power Metal [EAC-APE]/Power Metal.flac'
p288
aS'/media/dat/mus/Pantera/PANTERA [1984] Projects In The Jungle [EAC-APE]/Projects In The Jungle.flac'
p289
aS'/media/dat/mus/Pantera/PANTERA [1996] The Great Southern Trendkill [EAC-APE]/CDImage.flac'
p290
aS'/media/dat/mus/Pantera/PANTERA [1985] I Am The Night [EAC-APE]_/I Am The Night.flac'
p291
aS'/media/dat/mus/Pantera/PANTERA [1992] Vulgar Display Of Power [EAC-APE]/PANTERA-VULGAR DISPLAY OF POWER.flac'
p292
aS'/media/dat/mus/Rachmaninov/Window in Time/11 - Track11 - Rachmaninov.flac'
p293
aS'/media/dat/mus/Rachmaninov/Window in Time/08 - Track8 - Rachmaninov.flac'
p294
aS'/media/dat/mus/Rachmaninov/Window in Time/18 - Track18 - Rachmaninov.flac'
p295
aS'/media/dat/mus/Rachmaninov/Window in Time/17 - Track17 - Rachmaninov.flac'
p296
aS'/media/dat/mus/Rachmaninov/Window in Time/12 - Track12 - Rachmaninov.flac'
p297
aS'/media/dat/mus/Rachmaninov/Window in Time/09 - Track9 - Rachmaninov.flac'
p298
aS'/media/dat/mus/Rachmaninov/Window in Time/01 - Track1 - Rachmaninov.flac'
p299
aS'/media/dat/mus/Rachmaninov/Window in Time/19 - Track19 - Rachmaninov.flac'
p300
aS'/media/dat/mus/Rachmaninov/Window in Time/16 - Track16 - Rachmaninov.flac'
p301
aS'/media/dat/mus/Rachmaninov/Window in Time/03 - Track3 - Rachmaninov.flac'
p302
aS'/media/dat/mus/Rachmaninov/Window in Time/14 - Track14 - Rachmaninov.flac'
p303
aS'/media/dat/mus/Rachmaninov/Window in Time/15 - Track15 - Rachmaninov.flac'
p304
aS'/media/dat/mus/Rachmaninov/Window in Time/05 - Track5 - Rachmaninov.flac'
p305
aS'/media/dat/mus/Rachmaninov/Window in Time/06 - Track6 - Rachmaninov.flac'
p306
aS'/media/dat/mus/Rachmaninov/Window in Time/07 - Track7 - Rachmaninov.flac'
p307
aS'/media/dat/mus/Rachmaninov/Window in Time/13 - Track13 - Rachmaninov.flac'
p308
aS'/media/dat/mus/Rachmaninov/Window in Time/10 - Track10 - Rachmaninov.flac'
p309
aS'/media/dat/mus/Rachmaninov/Window in Time/02 - Track2 - Rachmaninov.flac'
p310
aS'/media/dat/mus/Rachmaninov/Window in Time/04 - Track4 - Rachmaninov.flac'
p311
aS'/media/dat/mus/Jeff Beck/Truth/9 Blues De Luxe.flac'
p312
aS'/media/dat/mus/Dimmu Borgir/Enthrone Darkness Triumphant/Dimmu Borgir - 11 - Raabj\xc3\xb8rn Speiler Draugheimens Skodde.flac'
p313
aS'/media/dat/mus/Kings of Convenience/Other/2000 - Playing Live In A Room [FLAC]/04 - Parr-\xc3\xa1-Pluie.flac'
p314
aS"/media/dat/mus/Kings of Convenience/Other/2001 - Versus (Remixes) [FLAC]/03 - The Girl From Back Then [Riton's \xc3\x9cber Jazz Mix].flac"
p315
aS"/media/dat/mus/Kings of Convenience/Other/2001 - Versus (Remixes) [FLAC]/01 - I Don't Know What I Can Save You From [R\xc3\xb6yksopp Remix].flac"
p316
aS'/media/dat/mus/Bob Walsh/(11) The Thrill Is Gone.flac'
p317
aS'/media/dat/mus/Bob Walsh/(04) Born In Chicago.flac'
p318
aS'/media/dat/mus/Bob Walsh/(14) Turn The Page.flac'
p319
aS'/media/dat/mus/Bob Walsh/(13) Needle And Spoon.flac'
p320
aS'/media/dat/mus/Bob Walsh/(01) Further On Up The Road.flac'
p321
aS"/media/dat/mus/Bob Walsh/(08) Hold On I'm Coming.flac"
p322
aS'/media/dat/mus/Bob Walsh/(09) Je Voudrais \xc3\x8atre Noir.flac'
p323
aS'/media/dat/mus/Bob Walsh/(03) Buzzard Luck.flac'
p324
aS'/media/dat/mus/Bob Walsh/(02) If You Wanna Love Me.flac'
p325
aS'/media/dat/mus/The Incredible Jazz Guitar of Wes Montgomery/The Incredible Jazz Guitar.flac'
p326
aS'/media/dat/mus/RJD2/2004 - Since We Last Spoke/08-rjd2--clean_living-sb.mp3'
p327
aS'/media/dat/mus/RJD2/2004 - Since We Last Spoke/11-rjd2--through_the_walls-sb.mp3'
p328
aS'/media/dat/mus/RJD2/2004 - Since We Last Spoke/12-rjd2--one_day-sb.mp3'
p329
aS'/media/dat/mus/RJD2/2004 - Since We Last Spoke/13-rjd2--de_lalouette-sb.mp3'
p330
aS'/media/dat/mus/RJD2/2004 - Since We Last Spoke/02-rjd2--exotic_talk-sb.mp3'
p331
aS'/media/dat/mus/RJD2/2004 - Since We Last Spoke/09-rjd2--iced_lightning-sb.mp3'
p332
aS'/media/dat/mus/RJD2/2004 - Since We Last Spoke/04-rjd2--ring_finger-sb.mp3'
p333
aS'/media/dat/mus/RJD2/2004 - Since We Last Spoke/06-rjd2--someones_second_kiss-sb.mp3'
p334
aS'/media/dat/mus/RJD2/2004 - Since We Last Spoke/03-rjd2--1976-sb.mp3'
p335
aS'/media/dat/mus/RJD2/2004 - Since We Last Spoke/14-rjd2--holy_toledo-sb.mp3'
p336
aS'/media/dat/mus/RJD2/2004 - Since We Last Spoke/07-rjd2--to_all_of_you-sb.mp3'
p337
aS'/media/dat/mus/RJD2/2004 - Since We Last Spoke/01-rjd2--since_we_last_spoke-sb.mp3'
p338
aS'/media/dat/mus/RJD2/2004 - Since We Last Spoke/10-rjd2--intro-sb.mp3'
p339
aS'/media/dat/mus/RJD2/2004 - Since We Last Spoke/05-rjd2--making_days_longer-sb.mp3'
p340
aS'/media/dat/mus/RJD2/2002 - Soul Position (RJD2 & Blueprint) - Unlimited EP/unlimited_EP_06.mp3'
p341
aS'/media/dat/mus/RJD2/2002 - Soul Position (RJD2 & Blueprint) - Unlimited EP/unlimited_EP_01.mp3'
p342
aS'/media/dat/mus/RJD2/2002 - Soul Position (RJD2 & Blueprint) - Unlimited EP/unlimited_EP_03.mp3'
p343
aS'/media/dat/mus/RJD2/2002 - Soul Position (RJD2 & Blueprint) - Unlimited EP/unlimited_EP_02.mp3'
p344
aS'/media/dat/mus/RJD2/2002 - Soul Position (RJD2 & Blueprint) - Unlimited EP/unlimited_EP_04.mp3'
p345
aS'/media/dat/mus/RJD2/2002 - Soul Position (RJD2 & Blueprint) - Unlimited EP/unlimited_EP_05.mp3'
p346
aS'/media/dat/mus/Jazz at the Pawnshop/Part 1/03 High Life - TRAD.flac'
p347
aS'/media/dat/mus/Jazz at the Pawnshop/Part 2/05 Here is that rainy day - Jimmy van Heusen.flac'
p348
aS"/media/dat/mus/Jazz at the Pawnshop/Part 3/07 Jeep's Blues - Duke Ellington.flac"
p349
aS'/media/dat/mus/Jazz at the Pawnshop/Part 3/02 Gubben och K\xc3\xa4llingen - TRAD.flac'
p350
aS'/media/dat/mus/Jazz at the Pawnshop/Part 3/01 In a mellow tone - Duke Ellington and Milton Gabler.flac'
p351
aS'/media/dat/mus/Jazz at the Pawnshop/Part 3/06 Mood Indigo - Duke Ellington.flac'
p352
aS'/media/dat/mus/Within Temptation/2004 - The Silent Force (Premium)/10 - It\xc2\xb4s The Fear.flac'
p353
aS'/media/dat/mus/Within Temptation/2004 - The Silent Force (Premium)/03 - Jillian (I\xc2\xb4d Give My Heart).flac'
p354
aS'/media/dat/mus/Galaxie/Tigre et Diesel/Galaxie - Tigre et diesel - 09 M\xc3\xa9lodie m\xc3\xa9canique.flac'
p355
aS'/media/dat/mus/Galaxie/Tigre et Diesel/Galaxie - Tigre et diesel - 07 Entre la lumi\xc3\xa8re et le bruit.flac'
p356
aS"/media/dat/mus/Galaxie/Tigre et Diesel/Galaxie - Tigre et diesel - 04 Jusqu'\xc3\xa0 la fin.flac"
p357
aS'/media/dat/mus/Sarah McLachlan/Sarah McLachlan - Rarities B Sides and other Stuff 2 2008/14. Sarah McLachlan with Delerium - Silence (DJ Ti\xc3\xabsto In Search of Sunrise Remix).flac'
p358
aS'/media/dat/mus/Def Leppard/Def Leppard - Songs From The Sparkle Lounge 2008/05 - Tomorrow.flac'
p359
aS'/media/dat/mus/Def Leppard/Def Leppard - Songs From The Sparkle Lounge 2008/08 - Only The Good Die Young.flac'
p360
aS"/media/dat/mus/Def Leppard/Def Leppard - Songs From The Sparkle Lounge 2008/03 - C'Mon C'Mon.flac"
p361
aS'/media/dat/mus/Def Leppard/Def Leppard - Songs From The Sparkle Lounge 2008/11 - Gotta Let It Go.flac'
p362
aS'/media/dat/mus/Def Leppard/Def Leppard - Songs From The Sparkle Lounge 2008/07 - Hallucinate.flac'
p363
aS'/media/dat/mus/Def Leppard/Def Leppard - Songs From The Sparkle Lounge 2008/02 - Nine Lives.flac'
p364
aS'/media/dat/mus/Def Leppard/Def Leppard - Songs From The Sparkle Lounge 2008/04 - Love.flac'
p365
aS'/media/dat/mus/Def Leppard/Def Leppard - Songs From The Sparkle Lounge 2008/09 - Bad Actress.flac'
p366
aS'/media/dat/mus/Def Leppard/Def Leppard - Songs From The Sparkle Lounge 2008/06 - Cruise Control.flac'
p367
aS'/media/dat/mus/Def Leppard/Def Leppard - Songs From The Sparkle Lounge 2008/10 - Come Undone.flac'
p368
aS'/media/dat/mus/Def Leppard/Def Leppard - Euphoria 1999/07 - It\xc2\xb4s Only Love.flac'
p369
aS'/media/dat/mus/Def Leppard/Def Leppard - Yeah! 2006/09. Little bit of love [Free cover].flac'
p370
aS"/media/dat/mus/Def Leppard/Def Leppard - Yeah! 2006/12. He's gonna step on you again [John Kongos cover].flac"
p371
aS'/media/dat/mus/Def Leppard/Def Leppard - Yeah! 2006/07. Street life [Roxy Music cover].flac'
p372
aS'/media/dat/mus/Def Leppard/Def Leppard - Yeah! 2006/08. Drive-in saturday [David Bowie cover].flac'
p373
aS'/media/dat/mus/Def Leppard/Def Leppard - Yeah! 2006/05. Hell Raiser [Sweet cover].flac'
p374
aS'/media/dat/mus/Def Leppard/Def Leppard - Yeah! 2006/06. 10538 Overture [Electric Light Orchestra cover].flac'
p375
aS"/media/dat/mus/Def Leppard/Def Leppard - Yeah! 2006/10. Golden age of rock 'n' roll [Mott the Hoople cover].flac"
p376
aS"/media/dat/mus/Def Leppard/Def Leppard - Yeah! 2006/13. Don't believe a word [Thin Lizzy cover].flac"
p377
aS'/media/dat/mus/Def Leppard/Def Leppard - Yeah! 2006/02. Rock on [David Essex cover].flac'
p378
aS'/media/dat/mus/Def Leppard/Def Leppard - Yeah! 2006/11. No matter what [Badfinger cover].flac'
p379
aS'/media/dat/mus/Def Leppard/Def Leppard - Yeah! 2006/03. Hanging on the telephone [The Nerves cover].flac'
p380
aS'/media/dat/mus/Def Leppard/Def Leppard - Yeah! 2006/04. Waterloo sunset [The Kinks cover].flac'
p381
aS'/media/dat/mus/Def Leppard/Def Leppard - Yeah! 2006/14. Stay with me [Faces cover].flac'
p382
aS'/media/dat/mus/Portishead/Dummy/11 Portishead, Glory box.flac'
p383
aS'/media/dat/mus/Portishead/Dummy/10 Portishead, Biscuit.flac'
p384
aS'/media/dat/mus/John Coltrane/Blue Train/01-Blue Train.flac'
p385
aS'/media/dat/mus/Eloy/Rarities/Eloy.Rarities.flac'
p386
aS'/media/dat/mus/Eloy/Rarities/10-Through a Somber Galaxy.flac'
p387
aS'/media/dat/mus/Eloy/Rarities/06-Horizons.flac'
p388
aS'/media/dat/mus/Eloy/Rarities/08-Sunset.flac'
p389
aS'/media/dat/mus/Eloy/Rarities/07-Wings of Vision.flac'
p390
aS'/media/dat/mus/Eloy/Codename.Wild.Geese/Eloy.Codename Wild Geese.Full CD.mp3'
p391
aS'/media/dat/mus/Eloy/Chronicles.Vol.1 & Vol.2/Disk 2/05 - Rainbow.mp3'
p392
aS'/media/dat/mus/Eloy/Chronicles.Vol.1 & Vol.2/Disk 2/03 - Nightriders.mp3'
p393
aS'/media/dat/mus/Eloy/Chronicles.Vol.1 & Vol.2/Disk 2/04 - Follow the light.mp3'
p394
aS'/media/dat/mus/Eloy/Chronicles.Vol.1 & Vol.2/Disk 2/09 - Prisoner in mind.mp3'
p395
aS'/media/dat/mus/Eloy/Chronicles.Vol.1 & Vol.2/Disk 2/02 - All life is one.mp3'
p396
aS'/media/dat/mus/Eloy/Chronicles.Vol.1 & Vol.2/Disk 2/07 - Fire & Ice.mp3'
p397
aS'/media/dat/mus/Eloy/Chronicles.Vol.1 & Vol.2/Disk 2/08 - Call of the wild.mp3'
p398
aS'/media/dat/mus/Eloy/Chronicles.Vol.1 & Vol.2/Disk 1/07 - End Of An Odyssey.mp3'
p399
aS'/media/dat/mus/Eloy/Chronicles.Vol.1 & Vol.2/Disk 1/05 - Sphinx.mp3'
p400
aS'/media/dat/mus/Eloy/Chronicles.Vol.1 & Vol.2/Disk 1/02 - The Apocalypse.mp3'
p401
aS'/media/dat/mus/Eloy/Chronicles.Vol.1 & Vol.2/Disk 1/06 - Illuminations.mp3'
p402
aS'/media/dat/mus/Eloy/Chronicles.Vol.1 & Vol.2/Disk 1/08 - Time To Turn.mp3'
p403
aS'/media/dat/mus/Eloy/Chronicles.Vol.1 & Vol.2/Disk 1/03 - Silhouette.mp3'
p404
aS'/media/dat/mus/Eloy/Silent Cries And Mighty Echoes/Eloy.Silent.Cries.And.Mighty.Echoes.flac'
p405
aS'/media/dat/mus/Parov Stelar/Move On/look behind - feat. anita rieg.mp3'
p406
aS'/media/dat/mus/Parov Stelar/Move On/pure and sweel.mp3'
p407
aS'/media/dat/mus/Parov Stelar/Move On/move on!.mp3'
p408
aS'/media/dat/mus/Parov Stelar/Move On/move on (c rock dub).mp3'
p409
aS'/media/dat/mus/Parov Stelar/Primavera/Mi Hou.mp3'
p410
aS'/media/dat/mus/Parov Stelar/Primavera/Ice.mp3'
p411
aS'/media/dat/mus/Parov Stelar/Primavera/All Night Long.mp3'
p412
aS'/media/dat/mus/Parov Stelar/Primavera/Primavera.mp3'
p413
aS'/media/dat/mus/Parov Stelar/Get Up on Your Feet/03 The One Feat. Miss Anita Riegl.mp3'
p414
aS'/media/dat/mus/Parov Stelar/Get Up on Your Feet/02 Brisky Business.mp3'
p415
aS'/media/dat/mus/Parov Stelar/Get Up on Your Feet/01 Get Up on Your Feet.mp3'
p416
aS'/media/dat/mus/Parov Stelar/Faith [Feat Odette Di Ma]/Faith (Walkner Hintenaus Dub V).mp3'
p417
aS'/media/dat/mus/Parov Stelar/Faith [Feat Odette Di Ma]/Faith (Wolf Myer Unbeat Version).mp3'
p418
aS'/media/dat/mus/Parov Stelar/Faith [Feat Odette Di Ma]/Faith.mp3'
p419
aS'/media/dat/mus/Parov Stelar/Faith [Feat Odette Di Ma]/Faith (Radio Edit).mp3'
p420
aS'/media/dat/mus/Peter Ilyich Tchaikovsky/The Sleeping Beauty, Op.66 (CD 1)/08 - No. 7- Sc\xc3\xa8ne.flac'
p421
aS'/media/dat/mus/Peter Ilyich Tchaikovsky/The Sleeping Beauty, Op.66 (CD 1)/13 - No. 12- Sc\xc3\xa8ne - Danse des duchesses, baronnes, comtesses, marquises.flac'
p422
aS"/media/dat/mus/Peter Ilyich Tchaikovsky/The Sleeping Beauty, Op.66 (CD 1)/09 - No. 8- Pas d'action- Adagio '\xc3\xa0 la rose' - Danse - Variations d'Aurore - Coda.flac"
p423
aS'/media/dat/mus/Peter Ilyich Tchaikovsky/The Sleeping Beauty, Op.66 (CD 1)/03 - No. 2- Sc\xc3\xa8ne dansante.flac'
p424
aS'/media/dat/mus/Peter Ilyich Tchaikovsky/The Sleeping Beauty, Op.66 (CD 1)/06 - ACT 1- The Spell - No. 5- Sc\xc3\xa8ne.flac'
p425
aS"/media/dat/mus/Peter Ilyich Tchaikovsky/The Sleeping Beauty, Op.66 (CD 1)/11 - ACT 2- The Vision - No. 10- Entr'acte et Sc\xc3\xa8ne.flac"
p426
aS'/media/dat/mus/Peter Ilyich Tchaikovsky/The Sleeping Beauty, Op.66 (CD 1)/14 - No. 13- Farandole- Sc\xc3\xa8ne - Danse.flac'
p427
aS"/media/dat/mus/Caracol/Caracol - L'Arbre Aux Parfums (2008) [FLAC] - insinuendo/Caracol - 12. La poussi\xc3\xa8re.flac"
p428
aS"/media/dat/mus/Caracol/Caracol - L'Arbre Aux Parfums (2008) [FLAC] - insinuendo/Caracol - 07. Le livre de la col\xc3\xa8re.flac"
p429
aS"/media/dat/mus/Caracol/Caracol - L'Arbre Aux Parfums (2008) [FLAC] - insinuendo/Caracol - 03. Le M\xc3\xa9pris.flac"
p430
aS'/media/dat/mus/Mogwai/Young Team [Remastered]/Mogwai - Young Team [Remastered] - 08 - R U Still In 2 It\xc2\xbf.flac'
p431
aS'/media/dat/mus/Joe Satriani/Is There Love in Space/11 - Bamboo.flac'
p432
aS'/media/dat/mus/Joe Satriani/Is There Love in Space/02 - Up in Flames.flac'
p433
aS'/media/dat/mus/Joe Satriani/Is There Love in Space/05 - Is There Love in Space .flac'
p434
aS'/media/dat/mus/Joe Satriani/Is There Love in Space/04 - Lifestyle.flac'
p435
aS'/media/dat/mus/Project Creation/Floating World/(10) Creating Atmosphere.flac'
p436
aS'/media/dat/mus/Project Creation/Floating World/(04) The Civilization.flac'
p437
aS'/media/dat/mus/Project Creation/Floating World/(13) Cheops.flac'
p438
aS'/media/dat/mus/Project Creation/Floating World/(11) First Species.flac'
p439
aS'/media/dat/mus/Project Creation/Floating World/(07) Warming Up The Machines.flac'
p440
aS'/media/dat/mus/Project Creation/Floating World/(01) The Floating World.flac'
p441
aS'/media/dat/mus/Project Creation/Floating World/(08) Artificial Satellite.flac'
p442
aS'/media/dat/mus/Project Creation/Floating World/(06) Arriving.flac'
p443
aS'/media/dat/mus/Project Creation/Floating World/(05) Mechanical Dragonflies.flac'
p444
aS'/media/dat/mus/Project Creation/Floating World/(14) Returning Home.flac'
p445
aS'/media/dat/mus/Project Creation/Floating World/(12) The Shining Planet.flac'
p446
aS'/media/dat/mus/Project Creation/Floating World/(03) The Desert Planet.flac'
p447
aS'/media/dat/mus/Project Creation/Floating World/(02) Living Under A Blue Sky.flac'
p448
aS'/media/dat/mus/Project Creation/Floating World/(09) Intervening.flac'
p449
aS'/media/dat/mus/Blind Guardian/Imaginations From The Other Side/Imaginations From The Other Side.flac'
p450
aS'/media/dat/mus/Waldeck/2007 - Ballroom Stories/10 - Bei Mir Bist Du Sch\xc3\xb6n (Dub).mp3'
p451
aS'/media/dat/mus/Queen/The Game/09 - Coming Soon.flac'
p452
aS'/media/dat/mus/Queen/Queen/03 - Great King Rat.flac'
p453
aS'/media/dat/mus/Queen/The Works/09 - Is This The World We Created... .flac'
p454
aS'/media/dat/mus/Queen/A Day At The Races/10 - Teo Torriatte (Let Us Cling Together).flac'
p455
aS'/media/dat/mus/Queen/The Miracle/05 - The Invisible Man.flac'
p456
aS'/media/dat/mus/Jesse Rose/Essential Mix - Jesse Rose - 2009-01-03 (Er7Radio.com & Scanner771).mp3'
p457
aS'/media/dat/mus/Ennio Morricone - Super Gold Edition/CD05/02_Sacco e Vanzetti - Speranze di libert\xc5\x95.flac'
p458
aS'/media/dat/mus/Les Colocs/05 S\xc3\xa9ropositif boogie.flac'
p459
aS'/media/dat/mus/Les Colocs/04 Mauvais caract\xc3\xa8re.flac'
p460
aS"/media/dat/mus/Les Colocs/08 Maudit qu'le monde est beau.flac"
p461
aS'/media/dat/mus/Les Colocs/03 Passe-mo\xc3\xa9 la puck.flac'
p462
aS'/media/dat/mus/Les Colocs/01 D\xc3\xa9d\xc3\xa9.flac'
p463
aS'/media/dat/mus/Les Colocs/06 La travers\xc3\xa9e.flac'
p464
aS'/media/dat/mus/The Clash/1977 - The Clash/12 - Hate And War.flac'
p465
aS'/media/dat/mus/The Clash/1977 - The Clash/08 - I Fought The Law.flac'
p466
aS'/media/dat/mus/The Clash/1977 - The Clash/09 - Janie Jones.flac'
p467
aS'/media/dat/mus/The Clash/1977 - The Clash/13 - Police And Thieves.flac'
p468
aS'/media/dat/mus/The Clash/1977 - The Clash/15 - Garageland.flac'
p469
aS'/media/dat/mus/The Clash/1977 - The Clash/10 - Career Opportunities.flac'
p470
aS"/media/dat/mus/The Clash/1977 - The Clash/02 - I'm So Bored With The U.S.A..flac"
p471
aS"/media/dat/mus/The Clash/1977 - The Clash/07 - London's Burning.flac"
p472
aS'/media/dat/mus/The Clash/1977 - The Clash/01 - Clash City Rockers.flac'
p473
aS'/media/dat/mus/The Clash/1977 - The Clash/05 - White Riot.flac'
p474
aS'/media/dat/mus/The Clash/1977 - The Clash/14 - Jail Guitar Doors.flac'
p475
aS'/media/dat/mus/The Clash/1977 - The Clash/04 - Complete Control-44.flac'
p476
aS"/media/dat/mus/The Clash/1977 - The Clash/11 - What's My Name.flac"
p477
aS'/media/dat/mus/The Clash/1977 - The Clash/06 - White Man In Hammersmith Palais.flac'
p478
aS'/media/dat/mus/The Clash/1977 - The Clash/03 - Remote Control.flac'
p479
aS'/media/dat/mus/Supertramp/1975-Crisis\xc2\xbf What Crisis\xc2\xbf[SHM-CD]/Supertramp - Crisis\xc2\xbf What Crisis\xc2\xbf - 02 - Sister Moonshine.flac'
p480
aS"/media/dat/mus/Supertramp/1975-Crisis\xc2\xbf What Crisis\xc2\xbf[SHM-CD]/Supertramp - Crisis\xc2\xbf What Crisis\xc2\xbf - 05 - Another Man's Woman.flac"
p481
aS"/media/dat/mus/Supertramp/1975-Crisis\xc2\xbf What Crisis\xc2\xbf[SHM-CD]/Supertramp - Crisis\xc2\xbf What Crisis\xc2\xbf - 03 - Ain't Nobody But Me.flac"
p482
aS'/media/dat/mus/Supertramp/1975-Crisis\xc2\xbf What Crisis\xc2\xbf[SHM-CD]/Supertramp - Crisis\xc2\xbf What Crisis\xc2\xbf - 10 - Two of Us.flac'
p483
aS'/media/dat/mus/Supertramp/1975-Crisis\xc2\xbf What Crisis\xc2\xbf[SHM-CD]/Supertramp - Crisis\xc2\xbf What Crisis\xc2\xbf - 01 - Easy Does It.flac'
p484
aS'/media/dat/mus/Supertramp/1975-Crisis\xc2\xbf What Crisis\xc2\xbf[SHM-CD]/Supertramp - Crisis\xc2\xbf What Crisis\xc2\xbf - 08 - Just a Normal Day.flac'
p485
aS'/media/dat/mus/Supertramp/1975-Crisis\xc2\xbf What Crisis\xc2\xbf[SHM-CD]/Supertramp - Crisis\xc2\xbf What Crisis\xc2\xbf - 04 - A Soapbox Opera.flac'
p486
aS'/media/dat/mus/Supertramp/1975-Crisis\xc2\xbf What Crisis\xc2\xbf[SHM-CD]/Supertramp - Crisis\xc2\xbf What Crisis\xc2\xbf - 07 - Poor Boy.flac'
p487
aS'/media/dat/mus/Supertramp/1975-Crisis\xc2\xbf What Crisis\xc2\xbf[SHM-CD]/Supertramp - Crisis\xc2\xbf What Crisis\xc2\xbf - 06 - Lady.flac'
p488
aS'/media/dat/mus/Supertramp/1975-Crisis\xc2\xbf What Crisis\xc2\xbf[SHM-CD]/Supertramp - Crisis\xc2\xbf What Crisis\xc2\xbf - 09 - The Meaning.flac'
p489
aS'/media/dat/mus/The Alan Parsons Project/Tales Of Mystery And Imagination/CD1/The Alan Parsons Project - Tales Of Mystery And Imagination (Deluxe Edition-CD1) [EAC-CUE-FLAC] [RePoPo].flac'
p490
aS'/media/dat/mus/The Alan Parsons Project/Tales Of Mystery And Imagination/CD2/The Alan Parsons Project - Tales Of Mystery And Imagination (Deluxe Edition-CD2) [EAC-CUE-FLAC] [RePoPo].flac'
p491
aS'/media/dat/mus/Gorillaz/Gorillaz/2 5\xe2\x81\x844.flac'
p492
aS'/media/dat/mus/Judas Priest/Priest...Live!/16 Judas Priest - You\xc2\xb4ve Got Another Thing Comin\xc2\xb4.flac'
p493
aS'/media/dat/mus/Noir D\xc3\xa9sir/2000 - En route pour la joie CD3/05 marlene.mp3'
p494
aS'/media/dat/mus/Noir D\xc3\xa9sir/2000 - En route pour la joie CD3/03 elle va ou elle veut.mp3'
p495
aS'/media/dat/mus/Noir D\xc3\xa9sir/2000 - En route pour la joie CD3/08 hoo doo.mp3'
p496
aS"/media/dat/mus/Noir D\xc3\xa9sir/2000 - En route pour la joie CD3/01 a l'arriere des taxis.mp3"
p497
aS'/media/dat/mus/Noir D\xc3\xa9sir/2000 - En route pour la joie CD3/02 here it comes slowly.mp3'
p498
aS'/media/dat/mus/Noir D\xc3\xa9sir/2000 - En route pour la joie CD3/04 the chameleon.mp3'
p499
aS'/media/dat/mus/Noir D\xc3\xa9sir/2000 - En route pour la joie CD3/07 song for JLP.mp3'
p500
aS'/media/dat/mus/Noir D\xc3\xa9sir/2000 - En route pour la joie CD3/09 volontaire.mp3'
p501
aS'/media/dat/mus/Noir D\xc3\xa9sir/2000 - En route pour la joie CD3/12 no no no.mp3'
p502
aS'/media/dat/mus/Noir D\xc3\xa9sir/2000 - En route pour la joie CD3/14 fin de siecle.mp3'
p503
aS'/media/dat/mus/Noir D\xc3\xa9sir/2000 - En route pour la joie CD3/15 helter skelter.mp3'
p504
aS'/media/dat/mus/Noir D\xc3\xa9sir/2000 - En route pour la joie CD3/13 les ecorches (remix).mp3'
p505
aS'/media/dat/mus/Noir D\xc3\xa9sir/2000 - En route pour la joie CD3/06 twilight zone.mp3'
p506
aS'/media/dat/mus/Noir D\xc3\xa9sir/2000 - En route pour la joie CD3/10 ici paris.mp3'
p507
aS'/media/dat/mus/Noir D\xc3\xa9sir/2000 - En route pour la joie CD3/11 i want you.mp3'
p508
aS'/media/dat/mus/Noir D\xc3\xa9sir/1997 - One trip One noise/tostaky (gus gus mix).mp3'
p509
aS'/media/dat/mus/Noir D\xc3\xa9sir/1997 - One trip One noise/le fleuve (f-treichler mix).mp3'
p510
aS'/media/dat/mus/Noir D\xc3\xa9sir/1997 - One trip One noise/les ecorch\xc3\xa9s (sloy mix).mp3'
p511
aS'/media/dat/mus/Noir D\xc3\xa9sir/1997 - One trip One noise/lolita nie en bloc (anna logik mix).mp3'
p512
aS'/media/dat/mus/Noir D\xc3\xa9sir/1997 - One trip One noise/tostaky (telepopmusik mix).mp3'
p513
aS'/media/dat/mus/Noir D\xc3\xa9sir/1997 - One trip One noise/fin de si\xc3\xa8cle (andrej mix).mp3'
p514
aS'/media/dat/mus/Noir D\xc3\xa9sir/1997 - One trip One noise/a ton etoile (yann tiersen mix).mp3'
p515
aS'/media/dat/mus/Noir D\xc3\xa9sir/1997 - One trip One noise/lazy (zend avesta mix).mp3'
p516
aS'/media/dat/mus/Noir D\xc3\xa9sir/1997 - One trip One noise/septembre en attendant (andrej mix).mp3'
p517
aS"/media/dat/mus/Noir D\xc3\xa9sir/1997 - One trip One noise/a l'arri\xc3\xa8re des taxis (al comet mix).mp3"
p518
aS'/media/dat/mus/Noir D\xc3\xa9sir/1997 - One trip One noise/one trip one noise (rasboras inc).mp3'
p519
aS'/media/dat/mus/Noir D\xc3\xa9sir/1997 - One trip One noise/oubli\xc3\xa9 (replicant mix).mp3'
p520
aS'/media/dat/mus/Noir D\xc3\xa9sir/1997 - One trip One noise/666-667 club (tilos clan mix).mp3'
p521
aS'/media/dat/mus/Noir D\xc3\xa9sir/2000 - En route pour la joie CD1/16 tostaky.mp3'
p522
aS'/media/dat/mus/Noir D\xc3\xa9sir/2000 - En route pour la joie CD1/10 onr trip one noise (remix).mp3'
p523
aS'/media/dat/mus/Noir D\xc3\xa9sir/2000 - En route pour la joie CD1/07 la bas.mp3'
p524
aS'/media/dat/mus/Noir D\xc3\xa9sir/2000 - En route pour la joie CD1/04 ces gens la.mp3'
p525
aS'/media/dat/mus/Noir D\xc3\xa9sir/2000 - En route pour la joie CD1/06 le fleuve.mp3'
p526
aS'/media/dat/mus/Noir D\xc3\xa9sir/2000 - En route pour la joie CD1/02 un jour en france.mp3'
p527
aS'/media/dat/mus/Noir D\xc3\xa9sir/2000 - En route pour la joie CD1/03 long time man.mp3'
p528
aS'/media/dat/mus/Noir D\xc3\xa9sir/2000 - En route pour la joie CD1/13 comme elle vient.mp3'
p529
aS'/media/dat/mus/Noir D\xc3\xa9sir/2000 - En route pour la joie CD1/11 septmbre en attendant.mp3'
p530
aS'/media/dat/mus/Noir D\xc3\xa9sir/2000 - En route pour la joie CD1/14 what i need.mp3'
p531
aS'/media/dat/mus/Noir D\xc3\xa9sir/2000 - En route pour la joie CD1/12 pyromane.mp3'
p532
aS'/media/dat/mus/Noir D\xc3\xa9sir/2000 - En route pour la joie CD1/05 back to you.mp3'
p533
aS'/media/dat/mus/Noir D\xc3\xa9sir/2000 - En route pour la joie CD1/17 dirty.mp3'
p534
aS'/media/dat/mus/Noir D\xc3\xa9sir/2000 - En route pour la joie CD1/08 a ton etoile (remix).mp3'
p535
aS'/media/dat/mus/Noir D\xc3\xa9sir/2000 - En route pour la joie CD1/01 en route pour la joie.mp3'
p536
aS'/media/dat/mus/Noir D\xc3\xa9sir/2000 - En route pour la joie CD1/09 lullaby.mp3'
p537
aS'/media/dat/mus/Noir D\xc3\xa9sir/2000 - En route pour la joie CD1/15 oubli\xc3\xa9.mp3'
p538
aS'/media/dat/mus/Noir D\xc3\xa9sir/1994 - Dies Irae cd2/05 - Marl\xc3\xa8ne.mp3'
p539
aS'/media/dat/mus/Noir D\xc3\xa9sir/1994 - Dies Irae cd2/07 - No No No.mp3'
p540
aS"/media/dat/mus/Noir D\xc3\xa9sir/1994 - Dies Irae cd2/04 - A L'arri\xc3\xa8re Des Taxis.mp3"
p541
aS'/media/dat/mus/Noir D\xc3\xa9sir/1994 - Dies Irae cd2/09 - Lolita Nie En Bloc.mp3'
p542
aS'/media/dat/mus/Noir D\xc3\xa9sir/1994 - Dies Irae cd2/08 - What I Need.mp3'
p543
aS"/media/dat/mus/Noir D\xc3\xa9sir/1994 - Dies Irae cd2/10 - I Want You ( She's So Heavy ).mp3"
p544
aS'/media/dat/mus/Noir D\xc3\xa9sir/1994 - Dies Irae cd2/01 - Johnny Col\xc3\xa8re.mp3'
p545
aS'/media/dat/mus/Noir D\xc3\xa9sir/1994 - Dies Irae cd2/03 - La Chaleur.mp3'
p546
aS'/media/dat/mus/Noir D\xc3\xa9sir/1994 - Dies Irae cd2/06 - Long Time Man.mp3'
p547
aS'/media/dat/mus/Noir D\xc3\xa9sir/1994 - Dies Irae cd2/11 - En Route Pour La Joie.mp3'
p548
aS'/media/dat/mus/Noir D\xc3\xa9sir/1994 - Dies Irae cd2/02 - The Holy Economic War.mp3'
p549
aS'/media/dat/mus/Noir D\xc3\xa9sir/2000 - En route pour la joie CD2/06 a la longue.mp3'
p550
aS'/media/dat/mus/Noir D\xc3\xa9sir/2000 - En route pour la joie CD2/10 lazy.mp3'
p551
aS'/media/dat/mus/Noir D\xc3\xa9sir/2000 - En route pour la joie CD2/17 working class hero.mp3'
p552
aS'/media/dat/mus/Noir D\xc3\xa9sir/2000 - En route pour la joie CD2/02 le zen emoi.mp3'
p553
aS'/media/dat/mus/Noir D\xc3\xa9sir/2000 - En route pour la joie CD2/11 la chaleur.mp3'
p554
aS'/media/dat/mus/Noir D\xc3\xa9sir/2000 - En route pour la joie CD2/12 one trip one noise.mp3'
p555
aS'/media/dat/mus/Noir D\xc3\xa9sir/2000 - En route pour la joie CD2/05 lolita nie en bloc.mp3'
p556
aS'/media/dat/mus/Noir D\xc3\xa9sir/2000 - En route pour la joie CD2/01 La rage.mp3'
p557
aS'/media/dat/mus/Noir D\xc3\xa9sir/2000 - En route pour la joie CD2/15 pictures of yourself.mp3'
p558
aS'/media/dat/mus/Noir D\xc3\xa9sir/2000 - En route pour la joie CD2/16 les ecorches.mp3'
p559
aS'/media/dat/mus/Noir D\xc3\xa9sir/2000 - En route pour la joie CD2/07 toujours etre ailleur.mp3'
p560
aS'/media/dat/mus/Noir D\xc3\xa9sir/2000 - En route pour la joie CD2/14 drunken sailors.mp3'
p561
aS'/media/dat/mus/Noir D\xc3\xa9sir/2000 - En route pour la joie CD2/03 un homme presse.mp3'
p562
aS'/media/dat/mus/Noir D\xc3\xa9sir/2000 - En route pour la joie CD2/13 the holy economic war.mp3'
p563
aS'/media/dat/mus/Noir D\xc3\xa9sir/2000 - En route pour la joie CD2/08 a ton etoile.mp3'
p564
aS'/media/dat/mus/Noir D\xc3\xa9sir/2000 - En route pour la joie CD2/09 oublie (remix).mp3'
p565
aS'/media/dat/mus/Noir D\xc3\xa9sir/2001 - Des Visages, Des Figures/06 des visages des figures.mp3'
p566
aS"/media/dat/mus/Noir D\xc3\xa9sir/2001 - Des Visages, Des Figures/09 a l'envers a l'endroit.mp3"
p567
aS'/media/dat/mus/Noir D\xc3\xa9sir/2001 - Des Visages, Des Figures/02 le grand incendie.mp3'
p568
aS'/media/dat/mus/Noir D\xc3\xa9sir/2001 - Des Visages, Des Figures/08 son style 2.mp3'
p569
aS"/media/dat/mus/Noir D\xc3\xa9sir/2001 - Des Visages, Des Figures/05 l'appartement.mp3"
p570
aS'/media/dat/mus/Noir D\xc3\xa9sir/2001 - Des Visages, Des Figures/10 lost.mp3'
p571
aS'/media/dat/mus/Noir D\xc3\xa9sir/2001 - Des Visages, Des Figures/11 bouquet de nerfs.mp3'
p572
aS'/media/dat/mus/Noir D\xc3\xa9sir/2001 - Des Visages, Des Figures/07 son style 1.mp3'
p573
aS"/media/dat/mus/Noir D\xc3\xa9sir/2001 - Des Visages, Des Figures/01 l'enfant roi.mp3"
p574
aS'/media/dat/mus/Noir D\xc3\xa9sir/2001 - Des Visages, Des Figures/03 le vent nous portera.mp3'
p575
aS"/media/dat/mus/Noir D\xc3\xa9sir/2001 - Des Visages, Des Figures/12 l'europe.mp3"
p576
aS'/media/dat/mus/Noir D\xc3\xa9sir/2001 - Des Visages, Des Figures/04 des armes.mp3'
p577
aS"/media/dat/mus/Noir D\xc3\xa9sir/1989 - Veuillez rendre l'ame (\xc3\xa0 qui elle appartient)/sweet Mary.mp3"
p578
aS"/media/dat/mus/Noir D\xc3\xa9sir/1989 - Veuillez rendre l'ame (\xc3\xa0 qui elle appartient)/the wound.mp3"
p579
aS"/media/dat/mus/Noir D\xc3\xa9sir/1989 - Veuillez rendre l'ame (\xc3\xa0 qui elle appartient)/a l'arri\xc3\xa9re des taxis.mp3"
p580
aS"/media/dat/mus/Noir D\xc3\xa9sir/1989 - Veuillez rendre l'ame (\xc3\xa0 qui elle appartient)/joey 2.mp3"
p581
aS"/media/dat/mus/Noir D\xc3\xa9sir/1989 - Veuillez rendre l'ame (\xc3\xa0 qui elle appartient)/aux sombres h\xc3\xa8ros de l'amer.mp3"
p582
aS"/media/dat/mus/Noir D\xc3\xa9sir/1989 - Veuillez rendre l'ame (\xc3\xa0 qui elle appartient)/apprends a dormir.mp3"
p583
aS"/media/dat/mus/Noir D\xc3\xa9sir/1989 - Veuillez rendre l'ame (\xc3\xa0 qui elle appartient)/what i need.mp3"
p584
aS"/media/dat/mus/Noir D\xc3\xa9sir/1989 - Veuillez rendre l'ame (\xc3\xa0 qui elle appartient)/joey 1.mp3"
p585
aS"/media/dat/mus/Noir D\xc3\xa9sir/1989 - Veuillez rendre l'ame (\xc3\xa0 qui elle appartient)/la chaleur.mp3"
p586
aS"/media/dat/mus/Noir D\xc3\xa9sir/1989 - Veuillez rendre l'ame (\xc3\xa0 qui elle appartient)/les \xc3\xa9corch\xc3\xa9s.mp3"
p587
aS"/media/dat/mus/Noir D\xc3\xa9sir/1989 - Veuillez rendre l'ame (\xc3\xa0 qui elle appartient)/le fleuve.mp3"
p588
aS'/media/dat/mus/Noir D\xc3\xa9sir/1994 - Dies Irae cd1/03 - Ici Paris.mp3'
p589
aS'/media/dat/mus/Noir D\xc3\xa9sir/1994 - Dies Irae cd1/06 - Les Ecorch\xc3\xa9s.mp3'
p590
aS'/media/dat/mus/Noir D\xc3\xa9sir/1994 - Dies Irae cd1/08 - Oubli\xc3\xa9.mp3'
p591
aS'/media/dat/mus/Noir D\xc3\xa9sir/1994 - Dies Irae cd1/04 - One Trip One Noise.mp3'
p592
aS'/media/dat/mus/Noir D\xc3\xa9sir/1994 - Dies Irae cd1/02 - Here It Comes Slowly.mp3'
p593
aS'/media/dat/mus/Noir D\xc3\xa9sir/1994 - Dies Irae cd1/10 - Sober Song.mp3'
p594
aS'/media/dat/mus/Noir D\xc3\xa9sir/1994 - Dies Irae cd1/11 - It Spurts.mp3'
p595
aS'/media/dat/mus/Noir D\xc3\xa9sir/1994 - Dies Irae cd1/01 - La Rage.mp3'
p596
aS'/media/dat/mus/Noir D\xc3\xa9sir/1994 - Dies Irae cd1/07 - Le Fleuve.mp3'
p597
aS'/media/dat/mus/Noir D\xc3\xa9sir/1994 - Dies Irae cd1/09 - Tostaky.mp3'
p598
aS'/media/dat/mus/Noir D\xc3\xa9sir/1994 - Dies Irae cd1/05 - Alice.mp3'
p599
aS"/media/dat/mus/Noir D\xc3\xa9sir/1987 - O\xc3\xb9 veux-tu qu'je r'garde/pyromane.mp3"
p600
aS"/media/dat/mus/Noir D\xc3\xa9sir/1987 - O\xc3\xb9 veux-tu qu'je r'garde/danse sur le feu Maria.mp3"
p601
aS"/media/dat/mus/Noir D\xc3\xa9sir/1987 - O\xc3\xb9 veux-tu qu'je r'garde/la rage.mp3"
p602
aS"/media/dat/mus/Noir D\xc3\xa9sir/1987 - O\xc3\xb9 veux-tu qu'je r'garde/Lola.mp3"
p603
aS"/media/dat/mus/Noir D\xc3\xa9sir/1987 - O\xc3\xb9 veux-tu qu'je r'garde/toujours etre ailleur.mp3"
p604
aS"/media/dat/mus/Noir D\xc3\xa9sir/1987 - O\xc3\xb9 veux-tu qu'je r'garde/o\xc3\xb9 veux tu qu'je r'garde.mp3"
p605
aS'/media/dat/mus/Noir D\xc3\xa9sir/1991 - Du ciment sous les plaines/hoo doo.mp3'
p606
aS'/media/dat/mus/Noir D\xc3\xa9sir/1991 - Du ciment sous les plaines/les oriflammes.mp3'
p607
aS'/media/dat/mus/Noir D\xc3\xa9sir/1991 - Du ciment sous les plaines/pictures of yourself.mp3'
p608
aS'/media/dat/mus/Noir D\xc3\xa9sir/1991 - Du ciment sous les plaines/the holy economic war.mp3'
p609
aS'/media/dat/mus/Noir D\xc3\xa9sir/1991 - Du ciment sous les plaines/no no no.mp3'
p610
aS"/media/dat/mus/Noir D\xc3\xa9sir/1991 - Du ciment sous les plaines/tout l'or.mp3"
p611
aS'/media/dat/mus/Noir D\xc3\xa9sir/1991 - Du ciment sous les plaines/la chanson de la main.mp3'
p612
aS'/media/dat/mus/Noir D\xc3\xa9sir/1991 - Du ciment sous les plaines/elle va ou elle veut.mp3'
p613
aS'/media/dat/mus/Noir D\xc3\xa9sir/1991 - Du ciment sous les plaines/charlie.mp3'
p614
aS"/media/dat/mus/Noir D\xc3\xa9sir/1991 - Du ciment sous les plaines/tu m'donnes le mal.mp3"
p615
aS'/media/dat/mus/Noir D\xc3\xa9sir/1991 - Du ciment sous les plaines/le zen emoi.mp3'
p616
aS'/media/dat/mus/Noir D\xc3\xa9sir/1991 - Du ciment sous les plaines/en route pour la joie.mp3'
p617
aS'/media/dat/mus/Noir D\xc3\xa9sir/1991 - Du ciment sous les plaines/si rien ne bouge.mp3'
p618
aS'/media/dat/mus/Noir D\xc3\xa9sir/1991 - Du ciment sous les plaines/the chameleon.mp3'
p619
aS'/media/dat/mus/Noir D\xc3\xa9sir/1992 - Tostaky/Noir Desir - Marlene.mp3'
p620
aS'/media/dat/mus/Noir D\xc3\xa9sir/1992 - Tostaky/Noir Desir - Johny Colere.mp3'
p621
aS'/media/dat/mus/Noir D\xc3\xa9sir/1992 - Tostaky/Noir Desir - Tostaky.mp3'
p622
aS'/media/dat/mus/Noir D\xc3\xa9sir/1992 - Tostaky/Noir Desir - Lolita nie en bloc.mp3'
p623
aS'/media/dat/mus/Noir D\xc3\xa9sir/1992 - Tostaky/Noir Desir - Sober Song.mp3'
p624
aS'/media/dat/mus/Noir D\xc3\xa9sir/1992 - Tostaky/Noir Desir - Alice.mp3'
p625
aS'/media/dat/mus/Noir D\xc3\xa9sir/1992 - Tostaky/Noir Desir - 7 Minutes.mp3'
p626
aS'/media/dat/mus/Noir D\xc3\xa9sir/1992 - Tostaky/Noir Desir - Oublie.mp3'
p627
aS'/media/dat/mus/Noir D\xc3\xa9sir/1992 - Tostaky/Noir Desir - Ici Paris.mp3'
p628
aS'/media/dat/mus/Noir D\xc3\xa9sir/1992 - Tostaky/Noir Desir - One Trip_One Noise.mp3'
p629
aS'/media/dat/mus/Noir D\xc3\xa9sir/1992 - Tostaky/Noir Desir - It Spurts.mp3'
p630
aS'/media/dat/mus/Noir D\xc3\xa9sir/1992 - Tostaky/Noir Desir - Here It Comes Slowly.mp3'
p631
aS"/media/dat/mus/Noir D\xc3\xa9sir/1996 - 666.667 Club/Noir Desir - L'homme presse.mp3"
p632
aS'/media/dat/mus/Noir D\xc3\xa9sir/1996 - 666.667 Club/Noir Desir - Les Persiennes.mp3'
p633
aS'/media/dat/mus/Noir D\xc3\xa9sir/1996 - 666.667 Club/Noir Desir - Un jour en France.mp3'
p634
aS'/media/dat/mus/Noir D\xc3\xa9sir/1996 - 666.667 Club/Noir Desir - Lazy.mp3'
p635
aS'/media/dat/mus/Noir D\xc3\xa9sir/1996 - 666.667 Club/Noir Desir - Prayer for a wanker.mp3'
p636
aS'/media/dat/mus/Noir D\xc3\xa9sir/1996 - 666.667 Club/Noir Desir - 666.667 Club.mp3'
p637
aS'/media/dat/mus/Noir D\xc3\xa9sir/1996 - 666.667 Club/Noir Desir - Septembre, en attendant.mp3'
p638
aS'/media/dat/mus/Noir D\xc3\xa9sir/1996 - 666.667 Club/Noir Desir - A ton etoile.mp3'
p639
aS'/media/dat/mus/Noir D\xc3\xa9sir/1996 - 666.667 Club/Noir Desir - Fin de siecle.mp3'
p640
aS'/media/dat/mus/Noir D\xc3\xa9sir/1996 - 666.667 Club/Noir Desir - Bonus.mp3'
p641
aS'/media/dat/mus/Noir D\xc3\xa9sir/1996 - 666.667 Club/Noir Desir - Ernestine.mp3'
p642
aS'/media/dat/mus/Noir D\xc3\xa9sir/1996 - 666.667 Club/Noir Desir - Comme elle vient.mp3'
p643
aS'/media/dat/mus/Noir D\xc3\xa9sir/1996 - 666.667 Club/Noir Desir - A la longue.mp3'
p644
aS'/media/dat/mus/Charles Aznavour/15  Charles Aznavour - La boh\xc3\xa8me  (P1965).flac'
p645
aS"/media/dat/mus/Charles Aznavour/11  Charles Aznavour - Non je n'ai rien oubli\xc3\xa9  (P1971).flac"
p646
aS'/media/dat/mus/Seal - The Best/09 - Walk On By (Master S&K Mix).flac'
p647
aS'/media/dat/mus/Seal - The Best/07 - My Vision (feat. Joey Negro) (Edit).flac'
p648
aS"/media/dat/mus/Seal - The Best/06 - Don't Cry.flac"
p649
aS'/media/dat/mus/Seal - The Best/12 - Lips Like Sugar (feat. Mikey Dread).flac'
p650
aS'/media/dat/mus/Seal - The Best/14 - Future Love Paradise.flac'
p651
aS'/media/dat/mus/Seal - The Best/04 - Prayer For The Dying.flac'
p652
aS'/media/dat/mus/Seal - The Best/02 - Kiss From A Rose.flac'
p653
aS'/media/dat/mus/Seal - The Best/10 - Get It Together.flac'
p654
aS'/media/dat/mus/Seal - The Best/03 - Killer.flac'
p655
aS'/media/dat/mus/Seal - The Best/01 - Crazy.flac'
p656
aS'/media/dat/mus/Seal - The Best/13 - Human Beings.flac'
p657
aS'/media/dat/mus/Seal - The Best/11 - Fly Like An Eagle.flac'
p658
aS"/media/dat/mus/Seal - The Best/08 - Love's Divine.flac"
p659
aS'/media/dat/mus/Seal - The Best/05 - Waiting For You.flac'
p660
aS'/media/dat/mus/Fatboy Slim/Fatboy Slim - The Greatest Hits - Why Try Harder -  Wonderful Night.flac'
p661
aS'/media/dat/mus/Fatboy Slim/Fatboy Slim - The Greatest Hits - Why Try Harder - Champion Sound.flac'
p662
aS'/media/dat/mus/Fatboy Slim/Fatboy Slim - The Greatest Hits - Why Try Harder - Right Here, Right Now.flac'
p663
aS'/media/dat/mus/Fatboy Slim/Fatboy Slim - The Greatest Hits - Why Try Harder - Brimful Of Asha (Norman Cook remix).flac'
p664
aS'/media/dat/mus/Fatboy Slim/Fatboy Slim - The Greatest Hits - Why Try Harder - Praise You.flac'
p665
aS'/media/dat/mus/Fatboy Slim/Fatboy Slim - The Greatest Hits - Why Try Harder - Everybody Loves A Carnival.flac'
p666
aS'/media/dat/mus/Fatboy Slim/Fatboy Slim - The Greatest Hits - Why Try Harder  - The Rockafeller Skank.flac'
p667
aS'/media/dat/mus/Fatboy Slim/Fatboy Slim - The Greatest Hits - Why Try Harder - Slash Dot Dash.flac'
p668
aS'/media/dat/mus/Fatboy Slim/Fatboy Slim - The Greatest Hits - Why Try Harder - That Old Pair Of Jeans.flac'
p669
aS'/media/dat/mus/Fatboy Slim/Fatboy Slim - The Greatest Hits - Why Try Harder  - Weapon Of Choice.flac'
p670
aS'/media/dat/mus/Fatboy Slim/Fatboy Slim - The Greatest Hits - Why Try Harder - Gangster Trippin.flac'
p671
aS"/media/dat/mus/Fatboy Slim/Fatboy Slim - The Greatest Hits - Why Try Harder -  Don't Let The Man Get You Down.flac"
p672
aS'/media/dat/mus/Fatboy Slim/Fatboy Slim - The Greatest Hits - Why Try Harder -  I See You Baby (Fatboy Slim remix).flac'
p673
aS'/media/dat/mus/Fatboy Slim/Fatboy Slim - The Greatest Hits - Why Try Harder -  Santa Cruz.flac'
p674
aS'/media/dat/mus/Fatboy Slim/Fatboy Slim - The Greatest Hits - Why Try Harder -  Demons.flac'
p675
aS'/media/dat/mus/Fatboy Slim/Fatboy Slim - The Greatest Hits - Why Try Harder - Sunset (Bird Of Prey).flac'
p676
aS'/media/dat/mus/Fatboy Slim/Fatboy Slim - The Greatest Hits - Why Try Harder - Going Out Of My Head.flac'
p677
aS'/media/dat/mus/Fatboy Slim/Fatboy Slim - The Greatest Hits - Why Try Harder -  Sho Nuff.flac'
p678
aS'/media/dat/mus/Ulver/Perdition City/05 The Future Sound Of Music.flac'
p679
aS'/media/dat/mus/Ulver/Perdition City/04 Tomorrow Never Knows.flac'
p680
aS'/media/dat/mus/Ulver/Perdition City/07 Dead City Centres.flac'
p681
aS'/media/dat/mus/The Knife/Singles/The Knife - Silent Shout (CDS)/03 - The Knife - Silent Shout (Troy Pierce mix).mp3'
p682
aS'/media/dat/mus/The Knife/Singles/The Knife - Silent Shout (CDS)/02 - The Knife - Silent Shout (William mix).mp3'
p683
aS'/media/dat/mus/The Knife/Singles/The Knife - Take My Breath Away (CDS)/03 - The Knife - Take My Breath Away (Puppetmasters mix).mp3'
p684
aS'/media/dat/mus/The Knife/Singles/The Knife - Take My Breath Away (CDS)/01 - The Knife - Take My Breath Away (MHC mix).mp3'
p685
aS'/media/dat/mus/The Knife/Singles/The Knife - Marble House (CDS alt)/02 - The Knife ft Jay Jay Johanson - Marble House (Booka Shades Polar Light Dub).mp3'
p686
aS'/media/dat/mus/The Knife/Singles/The Knife - Marble House (CDS alt)/04 - The Knife ft Jay Jay Johanson - Marble House (PTR Remix).mp3'
p687
aS'/media/dat/mus/The Knife/Singles/The Knife - Marble House (CDS alt)/01 - The Knife ft Jay Jay Johanson - Marble House (Rex Rhe Dog Remix).mp3'
p688
aS'/media/dat/mus/The Knife/Singles/The Knife - Marble House (CDS alt)/03 - The Knife ft Jay Jay Johanson - Marble House (Booka Shade Remix).mp3'
p689
aS"/media/dat/mus/The Knife/Singles/The Knife - We Share Our Mothers' Health (CDS)/02 - The Knife - We Share Our Mothers' Health (Trentem\xc3\xb8ller mix).flac"
p690
aS'/media/dat/mus/Iron Maiden/Dance of Death/04 Monts_gur.flac'
p691
aS'/media/dat/mus/Iron Maiden/No Prayer For The Dying/06 The Assassin.flac'
p692
aS'/media/dat/mus/Kraftwerk/Radio - Aktivit\xc3\xa4t/11 - Transistor.flac'
p693
aS'/media/dat/mus/Kraftwerk/Radio - Aktivit\xc3\xa4t/10 - Uran.flac'
p694
aS'/media/dat/mus/Kraftwerk/Radio - Aktivit\xc3\xa4t/07 - Die Stimme Der Enegie.flac'
p695
aS'/media/dat/mus/Kraftwerk/Radio - Aktivit\xc3\xa4t/02 - Radioaktivit\xc3\xa4t.flac'
p696
aS'/media/dat/mus/Kraftwerk/Radio - Aktivit\xc3\xa4t/06 - Nachrichten.flac'
p697
aS'/media/dat/mus/Kraftwerk/Radio - Aktivit\xc3\xa4t/05 - Sendepause.flac'
p698
aS'/media/dat/mus/Kraftwerk/Radio - Aktivit\xc3\xa4t/04 - \xc3\x84therwellen.flac'
p699
aS'/media/dat/mus/Kraftwerk/Radio - Aktivit\xc3\xa4t/12 - Ohm Sweet Ohm.flac'
p700
aS'/media/dat/mus/Kraftwerk/Radio - Aktivit\xc3\xa4t/09 - Radio Sterne.flac'
p701
aS'/media/dat/mus/Kraftwerk/Radio - Aktivit\xc3\xa4t/08 - Antenne.flac'
p702
aS'/media/dat/mus/Kraftwerk/Radio - Aktivit\xc3\xa4t/03 - Radioland.flac'
p703
aS'/media/dat/mus/Kraftwerk/Radio - Aktivit\xc3\xa4t/01 - Geigerz\xc3\xa4hler.flac'
p704
aS'/media/dat/mus/Kraftwerk/Tour De France/02 - Tour De France \xc3\x89tape 1.flac'
p705
aS'/media/dat/mus/Kraftwerk/Tour De France/07 - A\xc3\xa9ro Dynamik.flac'
p706
aS'/media/dat/mus/Kraftwerk/Tour De France/03 - Tour De France \xc3\x89tape 2.flac'
p707
aS'/media/dat/mus/Kraftwerk/Tour De France/11 - R\xc3\xa9g\xc3\xa9neration.flac'
p708
aS'/media/dat/mus/Kraftwerk/Tour De France/04 - Tour De France \xc3\x89tape 3.flac'
p709
aS'/media/dat/mus/Kraftwerk/The Mix/06 - Radioaktivit\xc3\xa4t.flac'
p710
aS'/media/dat/mus/Hadouken!/EPs/(2007) Not Here To Please You (Mixtape)/10 Tuning In (H! Kitsune\xcc\x81 mix).mp3'
p711
aS'/media/dat/mus/Hadouken!/staff/Plan B - No More Eating (Hadouken Remix).mp3'
p712
aS'/media/dat/mus/Hadouken!/staff/Dance Lesson.mp3'
p713
aS'/media/dat/mus/Hadouken!/staff/Love Sweat and Beer (myspace).mp3'
p714
aS'/media/dat/mus/Hadouken!/staff/Sugababes - Get Sexy (Hadouken! Remix).mp3'
p715
aS'/media/dat/mus/Hadouken!/staff/Hadouken! Vs Shadai & T.D.R - Armys Of The Night.mp3'
p716
aS'/media/dat/mus/Hadouken!/staff/MiniMix 2 1.mp3'
p717
aS'/media/dat/mus/Hadouken!/staff/Hadoukestra!.mp3'
p718
aS'/media/dat/mus/Hadouken!/staff/Klaxons - Atlantis to Interzone (Hadouken Remix).mp3'
p719
aS'/media/dat/mus/Hadouken!/staff/Liquid Lives (Live).mp3'
p720
aS'/media/dat/mus/Hadouken!/staff/Uncommon.mp3'
p721
aS'/media/dat/mus/Hadouken!/staff/Tunning In Vs Mortal Kombat (Remix).mp3'
p722
aS'/media/dat/mus/Hadouken!/staff/Superstar (myspace).mp3'
p723
aS'/media/dat/mus/Hadouken!/staff/Girls (myspace).mp3'
p724
aS'/media/dat/mus/Hadouken!/Singles/(2008) Get Smashed Gate Crash [B-sides]/Get Smashed Gate Crash (David Wolf remix).mp3'
p725
aS'/media/dat/mus/Hadouken!/Singles/(2008) Get Smashed Gate Crash [B-sides]/Get Smashed Gate Crash (Dezz Jo remix).mp3'
p726
aS'/media/dat/mus/Hadouken!/Singles/(2007) Bounce/The Bounce.mp3'
p727
aS'/media/dat/mus/Hadouken!/Singles/(2007) That Boy That Girl/A2 - Tunning In.mp3'
p728
aS'/media/dat/mus/Hadouken!/Singles/(2007) That Boy That Girl/B - Tunning In (h re rub).mp3'
p729
aS'/media/dat/mus/Hadouken!/Singles/(2007) That Boy That Girl/A1 - That Boy That Girl.mp3'
p730
aS"/media/dat/mus/Malajube - Trompe-l'oeil/03 P\xc3\xa2te filo.flac"
p731
aS"/media/dat/mus/Malajube - Trompe-l'oeil/10 \xc3\x89tienne d'aout.flac"
p732
aS"/media/dat/mus/Malajube - Trompe-l'oeil/08 Fille \xc3\xa0 plumes.flac"
p733
aS"/media/dat/mus/Malajube - Trompe-l'oeil/02 Montr\xc3\xa9al -40 C.flac"
p734
aS'/media/dat/mus/Arctic Monkeys/FWN/01 Brianstorm\xc2\xa0.flac'
p735
aS'/media/dat/mus/Kronos Quartet/Released/Kronos Quartet-Released-04-America - Before the war (Steve Reich).flac'
p736
aS'/media/dat/mus/Opossaum/Opossaum - \xc3\x80 couvert - 08 Quand la mort arrive.flac'
p737
aS'/media/dat/mus/Opossaum/Opossaum - \xc3\x80 couvert - 11 Millydien.flac'
p738
aS'/media/dat/mus/Opossaum/Opossaum - \xc3\x80 couvert - 06 Longitude.flac'
p739
aS'/media/dat/mus/Opossaum/Opossaum - \xc3\x80 couvert - 07 \xc3\x80 couvert.flac'
p740
aS'/media/dat/mus/Opossaum/Opossaum - \xc3\x80 couvert - 03 Le Loup.flac'
p741
aS'/media/dat/mus/Opossaum/Opossaum - \xc3\x80 couvert - 04 Charlie.flac'
p742
aS'/media/dat/mus/Opossaum/Opossaum - \xc3\x80 couvert - 02 Au jour levant.flac'
p743
aS'/media/dat/mus/Opossaum/Opossaum - \xc3\x80 couvert - 09 Le vieux ch\xc3\xaane.flac'
p744
aS'/media/dat/mus/Opossaum/Opossaum - \xc3\x80 couvert - 01 And it Became a Mountain.flac'
p745
aS'/media/dat/mus/Opossaum/Opossaum - \xc3\x80 couvert - 10 Canop\xc3\xa9e.flac'
p746
aS'/media/dat/mus/Opossaum/Opossaum - \xc3\x80 couvert - 05 Latitude.flac'
p747
aS'/media/dat/mus/Bjork/Post/02 Hyper-Ballad.flac'
p748
aS'/media/dat/mus/Bjork/Post/03 The Modern Things.flac'
p749
aS'/media/dat/mus/Bjork/Post/10 Cover Me.flac'
p750
aS'/media/dat/mus/Bjork/Debut/07 One Day.flac'
p751
aS'/media/dat/mus/The Rolling Stones/[1968] Beggars Banquet/05 Jigsaw Puzzle.flac'
p752
aS'/media/dat/mus/Lizz Wright/Lizz Wright - Dreaming Wide Awake (2005)/13 - Lizz Wright - Narrow Daylight .flac'
p753
aS'/media/dat/mus/Lizz Wright/Lizz Wright - Dreaming Wide Awake (2005)/03 - Lizz Wright - Hit The Ground .flac'
p754
aS'/media/dat/mus/Lizz Wright/Lizz Wright - Dreaming Wide Awake (2005)/12 - Lizz Wright - Without You .flac'
p755
aS'/media/dat/mus/Lizz Wright/Lizz Wright - Dreaming Wide Awake (2005)/09 - Lizz Wright - Get Together .flac'
p756
aS'/media/dat/mus/Lizz Wright/Lizz Wright - Dreaming Wide Awake (2005)/01 - Lizz Wright - A Taste Of Honey .flac'
p757
aS'/media/dat/mus/Lizz Wright/Lizz Wright - Dreaming Wide Awake (2005)/07 - Lizz Wright - Wake Up, Little Sparrow .flac'
p758
aS'/media/dat/mus/Lizz Wright/Lizz Wright - Dreaming Wide Awake (2005)/10 - Lizz Wright - Trouble .flac'
p759
aS'/media/dat/mus/Metallica/2008.Death Magnetic/05 - All Nightmare Long.flac'
p760
aS'/media/dat/mus/Metallica/2008.Death Magnetic/04 - The Day That Never Comes.flac'
p761
aS'/media/dat/mus/Metallica/2008.Death Magnetic/01 - That Was Just Your Life.flac'
p762
aS'/media/dat/mus/Metallica/2008.Death Magnetic/10 - My Apocalypse.flac'
p763
aS'/media/dat/mus/Metallica/2008.Death Magnetic/07 - The Unforgiven III.flac'
p764
aS'/media/dat/mus/Metallica/2008.Death Magnetic/03 - Broken, Beat & Scarred.flac'
p765
aS'/media/dat/mus/Metallica/2008.Death Magnetic/09 - Suicide & Redemption.flac'
p766
aS'/media/dat/mus/Metallica/2008.Death Magnetic/08 - The Judas Kiss.flac'
p767
aS'/media/dat/mus/Metallica/2008.Death Magnetic/06 - Cyanide.flac'
p768
aS'/media/dat/mus/Metallica/2008.Death Magnetic/02 - The End Of The Line.flac'
p769
aS'/media/dat/mus/Garbage - Absolute/Part 1/Push It.flac'
p770
aS"/media/dat/mus/Garbage - Absolute/Part 1/I Think I'm Paranoid.flac"
p771
aS'/media/dat/mus/Arcade Fire/Funeral/07-Wake Up.flac'
p772
aS'/media/dat/mus/Arcade Fire/Funeral/03-Une ann\xc3\xa9e sans lumiere.flac'
p773
aS'/media/dat/mus/Oteki/Tales/\xc3\xb6theki/tales - \xc3\xb6teki - 05 kontrol w- vizon & girdap.flac'
p774
aS'/media/dat/mus/Oteki/Tales/\xc3\xb6theki/tales - \xc3\xb6teki - 02 ihtimal feat. sybra azazil.flac'
p775
aS'/media/dat/mus/Oteki/Tales/\xc3\xb6theki/tales - \xc3\xb6teki - 03 sabit y\xc3\xbczler (interlude).flac'
p776
aS'/media/dat/mus/Oteki/Tales/\xc3\xb6theki/tales - \xc3\xb6teki - 06 iki ad\xc4\xb1ml\xc4\xb1k yerk\xc3\xbcre.flac'
p777
aS'/media/dat/mus/Oteki/Tales/\xc3\xb6theki/tales - \xc3\xb6teki - 04 k\xc3\xa2bil.flac'
p778
aS'/media/dat/mus/Oteki/Tales/\xc3\xb6theki/tales - \xc3\xb6teki - 01 \xc3\xb6teki.flac'
p779
aS"/media/dat/mus/Journey/Greatest Hits (Vinyl Edition)/11 - Journey - Lovin', Touchin', Squeezin'.flac"
p780
aS'/media/dat/mus/Journey/Greatest Hits (Vinyl Edition)/04 - Journey - Faithfully.flac'
p781
aS'/media/dat/mus/Journey/Greatest Hits (Vinyl Edition)/12 - Journey - Open Arms.flac'
p782
aS'/media/dat/mus/Journey/Greatest Hits (Vinyl Edition)/10 - Journey - Lights.flac'
p783
aS'/media/dat/mus/Journey/Greatest Hits (Vinyl Edition)/09 - Journey - Separate Ways (Worlds Apart).flac'
p784
aS'/media/dat/mus/Alanis Morissette/._14. Alanis Morissette - Mercy (from the Prayer Cycle).flac'
p785
aS'/media/dat/mus/Alanis Morissette/._16. Alanis Morissette - Uninvited (from the City Of Angels soundtrack).flac'
p786
aS'/media/dat/mus/Alanis Morissette/._10. Alanis Morissette - You Oughta Know.flac'
p787
aS'/media/dat/mus/Alanis Morissette/._18. Alanis Morissette - Hand In My Pocket.flac'
p788
aS'/media/dat/mus/Alanis Morissette/._02. Alanis Morissette - Head Over Feet.flac'
p789
aS'/media/dat/mus/Alanis Morissette/._11. Alanis Morissette - That I Would Be Good.flac'
p790
aS'/media/dat/mus/Alanis Morissette/._08. Alanis Morissette - You Learn.flac'
p791
aS'/media/dat/mus/Alanis Morissette/._04. Alanis Morissette - Everything.flac'
p792
aS'/media/dat/mus/Alanis Morissette/._07. Alanis Morissette - Princes Familiar (MTV unplugged).flac'
p793
aS'/media/dat/mus/Alanis Morissette/._13. Alanis Morissette - Hands Clean.flac'
p794
aS'/media/dat/mus/Alanis Morissette/._12. Alanis Morissette - Sister Blister.flac'
p795
aS'/media/dat/mus/Alanis Morissette/._09. Alanis Morissette - Simple Together.flac'
p796
aS'/media/dat/mus/Alanis Morissette/._06. Alanis Morissette - Ironic.flac'
p797
aS'/media/dat/mus/Alanis Morissette/._03. Alanis Morissette - 8 Easy Steps.flac'
p798
aS'/media/dat/mus/Alanis Morissette/._05. Alanis Morissette - Crazy.flac'
p799
aS"/media/dat/mus/Alanis Morissette/._17. Alanis Morissette - Let's Do It (Let's Fall In Love) (from the De-Lovely soundtrack).flac"
p800
aS'/media/dat/mus/Alanis Morissette/._15. Alanis Morissette - Still (from the Dogma soundtrack).flac'
p801
aS'/media/dat/mus/Alanis Morissette/._01. Alanis Morissette - Thank You.flac'
p802
aS'/media/dat/mus/Nils Petter Molvaer/Nils Petter Molvaer - 2001 - Recoloured - The Remix Album/10-Solid Ether (Funkst\xf6rung Mix).flac'
p803
aS"/media/dat/mus/Nils Petter Molvaer/Nils Petter Molvaer - 2001 - Recoloured - The Remix Album/02-Dead Indeed (Jan Bang's 7:00 AM Mix).flac"
p804
aS'/media/dat/mus/Nils Petter Molvaer/Nils Petter Molvaer - 2000 - Solid Ether/CDImage.flac'
p805
aS'/media/dat/mus/Steve Vai/Passion And Warfare/Passion And Warfare.flac'
p806
aS'/media/dat/mus/Bach/Meisterwerke [5CD FLAC]/Meisterwerke - Cd2/01 - Musici Di San Marco , Doppelkonzert F\xc3\xbcr 2 Violinen Und Orchester In D-Moll - Vicace.flac'
p807
aS'/media/dat/mus/Bach/Meisterwerke [5CD FLAC]/Meisterwerke - Cd1/09 - S\xc3\xbcdwest-Studioorchester , Adagio (Kadenz).flac'
p808
aS'/media/dat/mus/Bach/Meisterwerke [5CD FLAC]/Meisterwerke - Cd1/04 - S\xc3\xbcdwest-Studioorchester , Menuetto.flac'
p809
aS'/media/dat/mus/Bach/Meisterwerke [5CD FLAC]/Meisterwerke - Cd1/08 - S\xc3\xbcdwest-Studioorchester , Brandenburgische Konzerte Nr. 3 In G-Dur - Bmw 1048 - Allegro Moderato.flac'
p810
aS'/media/dat/mus/Bach/Meisterwerke [5CD FLAC]/Meisterwerke - Cd1/12 - S\xc3\xbcdwest-Studioorchester , Affettuoso.flac'
p811
aS'/media/dat/mus/Bach/Meisterwerke [5CD FLAC]/Meisterwerke - Cd1/03 - S\xc3\xbcdwest-Studioorchester , Allegro.flac'
p812
aS'/media/dat/mus/Bach/Meisterwerke [5CD FLAC]/Meisterwerke - Cd1/10 - S\xc3\xbcdwest-Studioorchester , Allegro.flac'
p813
aS'/media/dat/mus/Bach/Meisterwerke [5CD FLAC]/Meisterwerke - Cd1/05 - S\xc3\xbcdwest-Studioorchester , Brandenburgische Konzerte Nr. 2 In F-Dur - Bmw 1047 - Allegro.flac'
p814
aS'/media/dat/mus/Bach/Meisterwerke [5CD FLAC]/Meisterwerke - Cd1/02 - S\xc3\xbcdwest-Studioorchester , Adagio.flac'
p815
aS'/media/dat/mus/Bach/Meisterwerke [5CD FLAC]/Meisterwerke - Cd1/07 - S\xc3\xbcdwest-Studioorchester , Allegro Assai.flac'
p816
aS'/media/dat/mus/Bach/Meisterwerke [5CD FLAC]/Meisterwerke - Cd1/13 - S\xc3\xbcdwest-Studioorchester , Allegro.flac'
p817
aS'/media/dat/mus/Bach/Meisterwerke [5CD FLAC]/Meisterwerke - Cd1/01 - S\xc3\xbcdwest-Studioorchester , Brandenburgische Konzerte Nr. 1 In F-Dur - Bmw 1046 - Allegro.flac'
p818
aS'/media/dat/mus/Bach/Meisterwerke [5CD FLAC]/Meisterwerke - Cd1/06 - S\xc3\xbcdwest-Studioorchester , Andante.flac'
p819
aS'/media/dat/mus/Bach/Meisterwerke [5CD FLAC]/Meisterwerke - Cd1/11 - S\xc3\xbcdwest-Studioorchester , Brandenburgische Konzerte Nr. 5 In D-Dur - Bmw 1050 - Allegro.flac'
p820
aS'/media/dat/mus/Bach/Meisterwerke [5CD FLAC]/Meisterwerke - Cd4/01 - Camerata Romana , Suite F\xc3\xbcr Orchester Nr. 3 In D-Dur - Ouvert\xc3\xbcre.flac'
p821
aS'/media/dat/mus/Therion/Lemuria/10 Feuer Overt\xc3\xbcre , Prometheus Entfesselt.flac'
p822
aS'/media/dat/mus/Therion/(2006) Live In Mexico [FLAC]/CD1/05 - Asg\xd0\xb5rd.flac'
p823
aS'/media/dat/mus/Therion/(2001) Secret Of The Runes [FLAC]/03 - Asg\xd0\xb5rd.flac'
p824
aS'/media/dat/mus/Therion/(2001) Secret Of The Runes [FLAC]/02 - Midg\xd0\xb5rd.flac'
p825
aS'/media/dat/mus/Palov & Mishkin/Palov & Mishkin - Well Stomach [Scribble Records].mp3'
p826
aS'/media/dat/mus/Palov & Mishkin/Palov & Mishkin - The Dog [Scribble Records].mp3'
p827
aS'/media/dat/mus/Palov & Mishkin/Palov & Mishkin - In Cubanas [Scribble Records].mp3'
p828
aS"/media/dat/mus/Rainbow/Difficult to Cure/06 Can't Happen Here.flac"
p829
aS'/media/dat/mus/Rainbow/Difficult to Cure/01 I Surrender.flac'
p830
aS"/media/dat/mus/Rainbow/Difficult to Cure/09 Difficult To Cure (Beethoven's Ninth).flac"
p831
aS'/media/dat/mus/Rainbow/Difficult to Cure/02 Spotlight Kid.flac'
p832
aS'/media/dat/mus/Rainbow/Down To Earth/01 All Night Long.flac'
p833
aS"/media/dat/mus/Rainbow/Long Live Rock 'N' Roll/01 Long Live Rock 'N' Roll.flac"
p834
aS"/media/dat/mus/Rainbow/Long Live Rock 'N' Roll/04 Gates Of Babylon.flac"
p835
aS"/media/dat/mus/Holst The Planets/Andr\xc3\xa9 Previn Royal Philharmonic Orchestra/01 -Andr\xc3\xa9 Previn - The Planets, suite for orchestra & female chorus, Op. 32, H. 125; No. 1, 'Mars, the Bringer of War'.flac"
p836
aS"/media/dat/mus/Holst The Planets/Andr\xc3\xa9 Previn Royal Philharmonic Orchestra/02 -Andr\xc3\xa9 Previn - The Planets, suite for orchestra & female chorus, Op. 32, H. 125; No. 2, 'Venus, the Bringer of Peace'.flac"
p837
aS"/media/dat/mus/Holst The Planets/Andr\xc3\xa9 Previn Royal Philharmonic Orchestra/05 -Andr\xc3\xa9 Previn - The Planets, suite for orchestra & female chorus, Op. 32, H. 125; No. 5, 'Saturn, the Bringer of Old Age'.flac"
p838
aS"/media/dat/mus/Holst The Planets/Andr\xc3\xa9 Previn Royal Philharmonic Orchestra/03 -Andr\xc3\xa9 Previn - The Planets, suite for orchestra & female chorus, Op. 32, H. 125; No. 3, 'Mercury, the Winged Messenger'.flac"
p839
aS"/media/dat/mus/Holst The Planets/Andr\xc3\xa9 Previn Royal Philharmonic Orchestra/06 -Andr\xc3\xa9 Previn - The Planets, suite for orchestra & female chorus, Op. 32, H. 125; No. 6, 'Uranus, the Magician'.flac"
p840
aS"/media/dat/mus/Holst The Planets/Andr\xc3\xa9 Previn Royal Philharmonic Orchestra/04 -Andr\xc3\xa9 Previn - The Planets, suite for orchestra & female chorus, Op. 32, H. 125; No. 4, 'Jupiter, the Bringer of Peace'.flac"
p841
aS"/media/dat/mus/Holst The Planets/Andr\xc3\xa9 Previn Royal Philharmonic Orchestra/07 -Andr\xc3\xa9 Previn - The Planets, suite for orchestra & female chorus, Op. 32, H. 125; No. 7, 'Neptune, the Mystic' (w-hidden 8-part female chorus).flac"
p842
aS'/media/dat/mus/Premiata Forneria Marconi/photos of ghosts/01 River Of Life.flac'
p843
aS'/media/dat/mus/Premiata Forneria Marconi/photos of ghosts/03 Photos Of Ghosts.flac'
p844
aS'/media/dat/mus/Premiata Forneria Marconi/Storia di un minuto/05 Dove...Quando...(Parte II).flac'
p845
aS'/media/dat/mus/Tool/\xc3\x86nima (VINYL)/04-Useful Idiot (part 1).flac'
p846
aS'/media/dat/mus/Tool/\xc3\x86nima (VINYL)/02-Eulogy.flac'
p847
aS'/media/dat/mus/Tool/\xc3\x86nima (VINYL)/09-Intermission.flac'
p848
aS'/media/dat/mus/Tool/\xc3\x86nima (VINYL)/15-(-) Ions.flac'
p849
aS'/media/dat/mus/Tool/\xc3\x86nima (VINYL)/06-Forty Six & 2.flac'
p850
aS'/media/dat/mus/Tool/\xc3\x86nima (VINYL)/11-Die Eier Von Satan.flac'
p851
aS'/media/dat/mus/Tool/\xc3\x86nima (VINYL)/13-Cesaro Summability.flac'
p852
aS'/media/dat/mus/Tool/\xc3\x86nima (VINYL)/10-Jimmy.flac'
p853
aS'/media/dat/mus/Tool/\xc3\x86nima (VINYL)/08-Hooker With A Penis.flac'
p854
aS'/media/dat/mus/Tool/\xc3\x86nima (VINYL)/16-Third Eye.flac'
p855
aS'/media/dat/mus/Tool/\xc3\x86nima (VINYL)/14-\xc3\x86nema.flac'
p856
aS'/media/dat/mus/Tool/\xc3\x86nima (VINYL)/12-Pushit.flac'
p857
aS'/media/dat/mus/Tool/\xc3\x86nima (VINYL)/07-Message To Harry Manback.flac'
p858
aS'/media/dat/mus/Tool/\xc3\x86nima (VINYL)/03-H.flac'
p859
aS'/media/dat/mus/Tool/\xc3\x86nima (VINYL)/01-Stinkfist.flac'
p860
aS'/media/dat/mus/Tool/\xc3\x86nima (VINYL)/05-Useful Idiot (part 2).flac'
p861
aS'/media/dat/mus/Mortiis/Side Projects/Fata morgana/04. Fata Morgana/05 - Distant Thunder.mp3'
p862
aS'/media/dat/mus/Mortiis/Side Projects/Fata morgana/04. Fata Morgana/01 - Stargazer.mp3'
p863
aS'/media/dat/mus/Mortiis/Side Projects/Fata morgana/04. Fata Morgana/02 - Sok Din And.mp3'
p864
aS'/media/dat/mus/Mortiis/Side Projects/Fata morgana/04. Fata Morgana/06 - The Last Rainbow King.mp3'
p865
aS'/media/dat/mus/Mortiis/Side Projects/Fata morgana/04. Fata Morgana/07 - Purple Sky.mp3'
p866
aS'/media/dat/mus/Mortiis/Era 1/6. the stargate/06 - Towards The Gate Of Stars.mp3'
p867
aS'/media/dat/mus/Mortiis/Era 1/2. keiser av en dimensjon ukjent/01 - Reisene til grotter og \xc3\x98demarker.mp3'
p868
aS'/media/dat/mus/Mortiis/Era 1/1. Fodt Til \xc3\x85 Herske/Mortiis - Fodt Til \xc3\x85 Herske Part 1.mp3'
p869
aS'/media/dat/mus/Mortiis/Era 1/1. Fodt Til \xc3\x85 Herske/Mortiis - Fodt Til \xc3\x85 Herske Part 2.mp3'
p870
aS'/media/dat/mus/Mortiis/Era 1/4. Blood And Thunder/02 - Battles On Ice.mp3'
p871
aS'/media/dat/mus/Mortiis/Era 1/4. Blood And Thunder/01 - Blood And Thunder.mp3'
p872
aS'/media/dat/mus/Iced Earth/Iced Earth - 1998 - Something Wicked this Way Comes [EAC-FLAC]/04 - watching over me.flac'
p873
aS'/media/dat/mus/Iced Earth/Iced Earth - 1998 - Something Wicked this Way Comes [EAC-FLAC]/07 - my own savior.flac'
p874
aS'/media/dat/mus/Iced Earth/Iced Earth - 1998 - Something Wicked this Way Comes [EAC-FLAC]/10 - blessed are you.flac'
p875
aS'/media/dat/mus/Iced Earth/Iced Earth - 1998 - Something Wicked this Way Comes [EAC-FLAC]/08 - reaping stone.flac'
p876
aS'/media/dat/mus/Iced Earth/Iced Earth - 1998 - Something Wicked this Way Comes [EAC-FLAC]/02 - melancholy holy martyr.flac'
p877
aS'/media/dat/mus/Iced Earth/Iced Earth - 1998 - Something Wicked this Way Comes [EAC-FLAC]/06 - consequences.flac'
p878
aS'/media/dat/mus/Iced Earth/Iced Earth - 1998 - Something Wicked this Way Comes [EAC-FLAC]/12 - birth of the wicked.flac'
p879
aS'/media/dat/mus/Iced Earth/Iced Earth - 1998 - Something Wicked this Way Comes [EAC-FLAC]/13 - the coming curse.flac'
p880
aS'/media/dat/mus/Iced Earth/Iced Earth - 1998 - Something Wicked this Way Comes [EAC-FLAC]/09 - 1776.flac'
p881
aS'/media/dat/mus/Iced Earth/Iced Earth - 1998 - Something Wicked this Way Comes [EAC-FLAC]/01 - burning times.flac'
p882
aS'/media/dat/mus/Iced Earth/Iced Earth - 1998 - Something Wicked this Way Comes [EAC-FLAC]/03 - disciples of the lie.flac'
p883
aS'/media/dat/mus/Iced Earth/Iced Earth - 1998 - Something Wicked this Way Comes [EAC-FLAC]/11 - prophecy.flac'
p884
aS'/media/dat/mus/Iced Earth/Iced Earth - 1998 - Something Wicked this Way Comes [EAC-FLAC]/05 - stand alone.flac'
p885
aS'/media/dat/mus/Iced Earth/Iced Earth - 1996 - The Dark Saga [EAC-FLAC]/01 - dark saga.flac'
p886
aS'/media/dat/mus/Iced Earth/Iced Earth - 1996 - The Dark Saga [EAC-FLAC]/02 - i died for you.flac'
p887
aS"/media/dat/mus/Tom Waits/Wild Years/06I'll Be Gone.flac"
p888
aS'/media/dat/mus/Ravel/Bolero, La Valse & Other Works/Ravel, Maurice - Valses Nobles Et Sentimentales - IV Assez Anim\xc3\xa9.flac'
p889
aS'/media/dat/mus/Arcturus/The sham mirrors/(06) Radical Cut.flac'
p890
aS'/media/dat/mus/The Beatles/Abbey Road/10-Sun King.flac'
p891
aS'/media/dat/mus/Pawa up First/The Scenario/08 Shinjuku By Night (Original Version).flac'
p892
aS'/media/dat/mus/Pawa up First/The Scenario/03 Scenario In Three.flac'
p893
aS'/media/dat/mus/Pawa up First/The Scenario/06 February.flac'
p894
aS'/media/dat/mus/Pawa up First/The Scenario/01 Shinjuku By Night.flac'
p895
aS'/media/dat/mus/Pawa up First/The Scenario/09 February (Original Version).flac'
p896
aS'/media/dat/mus/Pawa up First/The Scenario/02 Part One Of A.flac'
p897
aS'/media/dat/mus/Pawa up First/The Scenario/05 Honor.flac'
p898
aS'/media/dat/mus/Pawa up First/The Scenario/04 We Swear It Was Self-Defense.flac'
p899
aS'/media/dat/mus/Pawa up First/The Scenario/07 Introducing New Details.flac'
p900
aS'/media/dat/mus/Pawa up First/The outcome/Track11.flac'
p901
aS'/media/dat/mus/Pawa up First/The outcome/Track10.flac'
p902
aS'/media/dat/mus/Pawa up First/The outcome/Track06.flac'
p903
aS'/media/dat/mus/Pawa up First/The outcome/Track01.flac'
p904
aS'/media/dat/mus/Pawa up First/The outcome/Track04.flac'
p905
aS'/media/dat/mus/Pawa up First/The outcome/Track02.flac'
p906
aS'/media/dat/mus/Pawa up First/The outcome/Track07.flac'
p907
aS'/media/dat/mus/Pawa up First/The outcome/Track09.flac'
p908
aS'/media/dat/mus/Pawa up First/The outcome/Track03.flac'
p909
aS'/media/dat/mus/Pawa up First/The outcome/Track05.flac'
p910
aS'/media/dat/mus/Pawa up First/The outcome/Track08.flac'
p911
aS'/media/dat/mus/Queensryche/Empire/Queensr\xc3\xbfche - Empire -/09 - Hand on Heart.flac'
p912
aS'/media/dat/mus/Queensryche/Empire/Queensr\xc3\xbfche - Empire -/01 - Best I Can.flac'
p913
aS'/media/dat/mus/Queensryche/Empire/Queensr\xc3\xbfche - Empire -/02 - The Thin Line.flac'
p914
aS'/media/dat/mus/Queensryche/Empire/Queensr\xc3\xbfche - Empire -/04 - Della Brown.flac'
p915
aS'/media/dat/mus/Queensryche/Empire/Queensr\xc3\xbfche - Empire -/10 - One and Only.flac'
p916
aS'/media/dat/mus/Queensryche/Empire/Queensr\xc3\xbfche - Empire -/11 - Anybody Listening .flac'
p917
aS'/media/dat/mus/Queensryche/Empire/Queensr\xc3\xbfche - Empire -/08 - Silent Lucidity.flac'
p918
aS'/media/dat/mus/Queensryche/Empire/Queensr\xc3\xbfche - Empire -/03 - Jet City Woman.flac'
p919
aS'/media/dat/mus/Queensryche/Empire/Queensr\xc3\xbfche - Empire -/05 - Another Rainy Night (Without You).flac'
p920
aS'/media/dat/mus/Queensryche/Empire/Queensr\xc3\xbfche - Empire -/07 - Resistance.flac'
p921
aS'/media/dat/mus/Queensryche/Empire/Queensr\xc3\xbfche - Empire -/06 - Empire.flac'
p922
aS'/media/dat/mus/Queensryche/Queensr\xc3\xbfche  EP/11 - The Lady Wore Black (Live in Tokyo).flac'
p923
aS'/media/dat/mus/Queensryche/Queensr\xc3\xbfche  EP/05 - Nightrider (Live in Tokyo).flac'
p924
aS'/media/dat/mus/Queensryche/Queensr\xc3\xbfche  EP/08 - Child of Fire (Live in Tokyo).flac'
p925
aS'/media/dat/mus/Queensryche/Queensr\xc3\xbfche  EP/14 - Queen of the Reich (Live in Tokyo).flac'
p926
aS'/media/dat/mus/Queensryche/Queensr\xc3\xbfche  EP/06 - Prophecy (Live in Tokyo).flac'
p927
aS'/media/dat/mus/Queensryche/Queensr\xc3\xbfche  EP/01 - Queen of the Reich.flac'
p928
aS'/media/dat/mus/Queensryche/Queensr\xc3\xbfche  EP/02 - Nightrider.flac'
p929
aS'/media/dat/mus/Queensryche/Queensr\xc3\xbfche  EP/03 - Blinded.flac'
p930
aS'/media/dat/mus/Queensryche/Queensr\xc3\xbfche  EP/04 - The Lady Wore Black.flac'
p931
aS'/media/dat/mus/Queensryche/Queensr\xc3\xbfche  EP/07 - Deliverance (Live in Tokyo).flac'
p932
aS'/media/dat/mus/Queensryche/Queensr\xc3\xbfche  EP/12 - Warning (Live in Tokyo).flac'
p933
aS'/media/dat/mus/Queensryche/Queensr\xc3\xbfche  EP/13 - Take Hold of the Flame (Live in Tokyo).flac'
p934
aS'/media/dat/mus/Queensryche/Queensr\xc3\xbfche  EP/10 - Blinded (Live in Tokyo).flac'
p935
aS'/media/dat/mus/Queensryche/Queensr\xc3\xbfche  EP/09 - En Force (Live in Tokyo).flac'
p936
aS'/media/dat/mus/Broken social scene/You Forgot it in People/01 - Broken Social Scene - Capture The Flag .flac'
p937
aS'/media/dat/mus/Broken social scene/You Forgot it in People/07 - Broken Social Scene - Anthems For A Seventeen Year Old Girl .flac'
p938
aS'/media/dat/mus/Broken social scene/You Forgot it in People/06 - Broken Social Scene - Pacific Theme .flac'
p939
aS"/media/dat/mus/Broken social scene/You Forgot it in People/11 - Broken Social Scene - Lover's Spit .flac"
p940
aS'/media/dat/mus/Broken social scene/You Forgot it in People/04 - Broken Social Scene - Almost Crimes .flac'
p941
aS'/media/dat/mus/Broken social scene/You Forgot it in People/09 - Broken Social Scene - Late Night Bedroom Rock For The Missionaries .flac'
p942
aS'/media/dat/mus/Broken social scene/You Forgot it in People/08 - Broken Social Scene - Cause = Time .flac'
p943
aS'/media/dat/mus/Broken social scene/You Forgot it in People/10 - Broken Social Scene - Shampoo Suicide .flac'
p944
aS'/media/dat/mus/Broken social scene/You Forgot it in People/02 - Broken Social Scene - KC Accidental .flac'
p945
aS"/media/dat/mus/Broken social scene/You Forgot it in People/12 - Broken Social Scene - I'm Still Your Fag .flac"
p946
aS'/media/dat/mus/Broken social scene/You Forgot it in People/13 - Broken Social Scene - Pitter Patter Goes My Heart .flac'
p947
aS'/media/dat/mus/Broken social scene/You Forgot it in People/05 - Broken Social Scene - Looks Just Like The Sun .flac'
p948
aS'/media/dat/mus/Broken social scene/You Forgot it in People/03 - Broken Social Scene - Stars And Sons .flac'
p949
aS'/media/dat/mus/Sagot - Piano mal/Sagot - Piano Mal - 07 Ch\xc3\xa2teau Rouge.flac'
p950
aS'/media/dat/mus/Sagot - Piano mal/Sagot - Piano Mal - 08 F\xc3\xa9vrier.flac'
p951
aS'/media/dat/mus/Mr Bungle/Bowl of Chiley/Mr. Bungle - Bowl Of Chiley - 12 - No Strings Attached.flac'
p952
aS'/media/dat/mus/Mr Bungle/Bowl of Chiley/Mr. Bungle - Bowl Of Chiley - 08 - Cottage Cheese.flac'
p953
aS'/media/dat/mus/Mr Bungle/Bowl of Chiley/Mr. Bungle - Bowl Of Chiley - 10 - (     ).flac'
p954
aS'/media/dat/mus/Mr Bungle/Bowl of Chiley/Mr. Bungle - Bowl Of Chiley - 04 - Carousel.flac'
p955
aS'/media/dat/mus/Mr Bungle/Bowl of Chiley/Mr. Bungle - Bowl Of Chiley - 11 - Freight Train.flac'
p956
aS"/media/dat/mus/Mr Bungle/Bowl of Chiley/Mr. Bungle - Bowl Of Chiley - 14 - Walkin' In Circles.flac"
p957
aS'/media/dat/mus/Mr Bungle/Bowl of Chiley/Mr. Bungle - Bowl Of Chiley - 05 - Evil Satan.flac'
p958
aS'/media/dat/mus/Mr Bungle/Bowl of Chiley/Mr. Bungle - Bowl Of Chiley - 02 - Nicotina.flac'
p959
aS'/media/dat/mus/Mr Bungle/Bowl of Chiley/Mr. Bungle - Bowl Of Chiley - 13 - Fart In A Bag.flac'
p960
aS'/media/dat/mus/Mr Bungle/Bowl of Chiley/Mr. Bungle - Bowl Of Chiley - 07 - Jumping (Part Two).flac'
p961
aS"/media/dat/mus/Mr Bungle/Bowl of Chiley/Mr. Bungle - Bowl Of Chiley - 09 - You Can't Make Me Mad.flac"
p962
aS'/media/dat/mus/Blur/The Great Escape/Blur The Great Escape 05 Fade Away.flac'
p963
aS'/media/dat/mus/Blur/The Great Escape/Blur The Great Escape 07 The Universal.flac'
p964
aS"/media/dat/mus/Blur/The Great Escape/Blur The Great Escape 08 Mr.Robinsons' Quango.flac"
p965
aS'/media/dat/mus/Blur/The Great Escape/Blur The Great Escape 09 He Thought Of Cars.flac'
p966
aS'/media/dat/mus/Blur/The Great Escape/Blur The Great Escape 11 Ernold Same.flac'
p967
aS'/media/dat/mus/Blur/The Great Escape/Blur The Great Escape 02 Country House.flac'
p968
aS'/media/dat/mus/Blur/The Great Escape/Blur The Great Escape 14 Entertain Me.flac'
p969
aS'/media/dat/mus/Blur/The Great Escape/Blur The Great Escape 13 Dan Abnormal.flac'
p970
aS'/media/dat/mus/Blur/The Great Escape/Blur The Great Escape 10 It Could Be You.flac'
p971
aS'/media/dat/mus/Blur/The Great Escape/Blur The Great Escape 06 Top Man.flac'
p972
aS'/media/dat/mus/Blur/The Great Escape/Blur The Great Escape 12 Globe Alone.flac'
p973
aS'/media/dat/mus/Blur/The Great Escape/Blur The Great Escape 04 Charmless Man.flac'
p974
aS'/media/dat/mus/Blur/The Great Escape/Blur The Great Escape 15 Yuko and Hiro.flac'
p975
aS'/media/dat/mus/Blur/The Great Escape/Blur The Great Escape 03 Best Days.flac'
p976
aS'/media/dat/mus/Blur/The Great Escape/Blur The Great Escape 01 Stereotypes.flac'
p977
aS'/media/dat/mus/Brad Melhdau/Bimhuis Amsterdam/BIMHUIS 2/04 - Get Happy.flac'
p978
aS'/media/dat/mus/Brad Melhdau/Bimhuis Amsterdam/BIMHUIS 2/03 - Thelonious.flac'
p979
aS'/media/dat/mus/Brad Melhdau/Bimhuis Amsterdam/BIMHUIS 2/01 - August Ending.flac'
p980
aS'/media/dat/mus/Zero 7/Simple Things/Bonus CD/06 - End Theme (Roni\xc2\xb4s Tear It Down Remix).flac'
p981
aS'/media/dat/mus/Zero 7/When It Falls/09 - In Time.flac'
p982
aS'/media/dat/mus/Martha Wainwright/Martha Wainwright...Martha Wainwright(2005)[FLAC]/Martha Wainwright - 12 - Who Was I Kidding\xc2\xbf.flac'
p983
aS'/media/dat/mus/Frankie Goes To Hollywood/Welcome To The Pleasuredome/Frankie Goes To Hollywood - Relax.flac'
p984
aS'/media/dat/mus/Lotr Soundtrack/The Lord Of The Rings Fellowship Of The Ring/Disc 3/01 - Khazad-D\xc3\xbbm.flac'
p985
aS'/media/dat/mus/Lotr Soundtrack/The Lord Of The Rings Fellowship Of The Ring/Disc 1/14 - The Nazg\xc3\xbbl.flac'
p986
aS'/media/dat/mus/Lotr Soundtrack/The Lord Of The Rings The Return Of The King/Disc 2/07 - And\xc3\xbaril - Flame Of The West - The Lord Of The Rings Soundtrack.flac'
p987
aS'/media/dat/mus/Lotr Soundtrack/The Lord Of The Rings The Return Of The King/Disc 4/01 - Mount Doom - The Lord Of The Rings Soundtrack Featuring Ren\xc3\xa9e Fleming.flac'
p988
aS'/media/dat/mus/Lotr Soundtrack/The Lord Of The Rings The Return Of The King/Disc 4/03 - The Eagles - The Lord Of The Rings Soundtrack Featuring Ren\xc3\xa9e Fleming.flac'
p989
aS'/media/dat/mus/Lotr Soundtrack/The Lord Of The Rings The Return Of The King/Disc 4/04 - The Fellowship Reunited - The Lord Of The Rings Soundtrack Featuring Sir James Galway, Viggo Mortensen, And Ren\xc3\xa9e Fleming.flac'
p990
aS'/media/dat/mus/Lotr Soundtrack/The Lord Of The Rings The Return Of The King/Disc 3/10 - The Passing Of Th\xc3\xa9oden - The Lord Of The Rings Soundtrack.flac'
p991
aS'/media/dat/mus/Lotr Soundtrack/The Lord Of The Rings The Return Of The King/Disc 3/06 - The M\xc3\xbbmakil - The Lord Of The Rings Soundtrack.flac'
p992
aS"/media/dat/mus/Lotr Soundtrack/The Lord Of The Rings The Return Of The King/Disc 1/09 - \xc3\x89owyn's Dream - The Lord Of The Rings Soundtrack.flac"
p993
aS'/media/dat/mus/Lotr Soundtrack/The Lord Of The Rings The Return Of The King/Disc 1/12 - The Grace Of Und\xc3\xb3miel - The Lord Of The Rings Soundtrack Featuring Ren\xc3\xa9e Fleming.flac'
p994
aS'/media/dat/mus/Lotr Soundtrack/The Lord Of The Rings The Return Of The King/Disc 1/10 - The Palant\xc3\xadr - The Lord Of The Rings Soundtrack.flac'
p995
aS"/media/dat/mus/Shooglenifty/2005 - Radical Mestizo (Live)/03 - The Arms Dealer's Daughter.mp3"
p996
aS'/media/dat/mus/Shooglenifty/2005 - Radical Mestizo (Live)/02 - Glenuig Hall.mp3'
p997
aS"/media/dat/mus/Shooglenifty/2005 - Radical Mestizo (Live)/05 - Carboni's Farewell.mp3"
p998
aS'/media/dat/mus/Shooglenifty/2005 - Radical Mestizo (Live)/10 - Craping The Barrel.mp3'
p999
aS"/media/dat/mus/Shooglenifty/2005 - Radical Mestizo (Live)/01 - She's In The Attic.mp3"
p1000
aS'/media/dat/mus/Shooglenifty/2005 - Radical Mestizo (Live)/06 - Delighted.mp3'
p1001
aS'/media/dat/mus/Shooglenifty/2005 - Radical Mestizo (Live)/04 - Nordal Rumba.mp3'
p1002
aS"/media/dat/mus/Shooglenifty/2005 - Radical Mestizo (Live)/07 - Schumann's Leap.mp3"
p1003
aS'/media/dat/mus/Shooglenifty/2005 - Radical Mestizo (Live)/09 - A Fistful Of Euro.mp3'
p1004
aS'/media/dat/mus/Shooglenifty/2005 - Radical Mestizo (Live)/08 - Heading West.mp3'
p1005
aS'/media/dat/mus/Franz Ferdinand/Franz Ferdinand/04 - The Dark of the Matin\xc3\xa9e.flac'
p1006
aS'/media/dat/mus/Son Lux/Son Lux - At War with Walls and Mazes - 2008 - Flac/11 - Epilogue.flac'
p1007
aS'/media/dat/mus/Son Lux/Son Lux - At War with Walls and Mazes - 2008 - Flac/10 - War.flac'
p1008
aS'/media/dat/mus/Astor Piazolla/Piazzolla and Kronos Quartett - Five Tango Sensations/._02 Loving.flac'
p1009
aS'/media/dat/mus/Astor Piazolla/Piazzolla and Kronos Quartett - Five Tango Sensations/._03 Anxiety.flac'
p1010
aS'/media/dat/mus/Astor Piazolla/Piazzolla and Kronos Quartett - Five Tango Sensations/._01 Asleep.flac'
p1011
aS'/media/dat/mus/Astor Piazolla/Piazzolla and Kronos Quartett - Five Tango Sensations/._04 Despertar.flac'
p1012
aS'/media/dat/mus/Astor Piazolla/Piazzolla and Kronos Quartett - Five Tango Sensations/._05 Fear.flac'
p1013
aS'/media/dat/mus/ACDC/ACDC - Fly On The Wall 1985 (2008 Japanese SICP-1710)/05 ACDC Sink The Pink.flac'
p1014
aS'/media/dat/mus/ACDC/ACDC - Fly On The Wall 1985 (2008 Japanese SICP-1710)/02 ACDC - Shake Your Foundations.flac'
p1015
aS'/media/dat/mus/ACDC/ACDC - Fly On The Wall 1985 (2008 Japanese SICP-1710)/06 ACDC - Playing With Girls.flac'
p1016
aS'/media/dat/mus/ACDC/ACDC - Fly On The Wall 1985 (2008 Japanese SICP-1710)/01 ACDC - Fly On The Wall.flac'
p1017
aS'/media/dat/mus/ACDC/ACDC - Fly On The Wall 1985 (2008 Japanese SICP-1710)/04 ACDC - Danger.flac'
p1018
aS'/media/dat/mus/ACDC/ACDC - Fly On The Wall 1985 (2008 Japanese SICP-1710)/03 ACDC - First Blood.flac'
p1019
aS'/media/dat/mus/ACDC/ACDC - Fly On The Wall 1985 (2008 Japanese SICP-1710)/07 ACDC - Stand Up.flac'
p1020
aS'/media/dat/mus/ACDC/ACDC - Fly On The Wall 1985 (2008 Japanese SICP-1710)/08 ACDC - Hell Or High Water.flac'
p1021
aS'/media/dat/mus/ACDC/ACDC - Fly On The Wall 1985 (2008 Japanese SICP-1710)/10 ACDC - Send For The Man.flac'
p1022
aS'/media/dat/mus/ACDC/ACDC - Fly On The Wall 1985 (2008 Japanese SICP-1710)/09 ACDC - Back In Business.flac'
p1023
aS'/media/dat/mus/ACDC/ACDC - Live [2CD Collectors Edition] 1992 (2008 Japanese SICP-1714-5)/Cd 2/06 ACDC - Whole Lotta Rosie.flac'
p1024
aS'/media/dat/mus/ACDC/ACDC - Live [2CD Collectors Edition] 1992 (2008 Japanese SICP-1714-5)/Cd 2/05 ACDC - You Shook Me All Night Long.flac'
p1025
aS'/media/dat/mus/ACDC/ACDC - Live [2CD Collectors Edition] 1992 (2008 Japanese SICP-1714-5)/Cd 2/02 ACDC - Are You Ready.flac'
p1026
aS'/media/dat/mus/ACDC/ACDC - Live [2CD Collectors Edition] 1992 (2008 Japanese SICP-1714-5)/Cd 2/11 ACDC - For Those About To Rock (We Salute You).flac'
p1027
aS'/media/dat/mus/ACDC/ACDC - Live [2CD Collectors Edition] 1992 (2008 Japanese SICP-1714-5)/Cd 2/01 ACDC - Hells Bells.flac'
p1028
aS'/media/dat/mus/ACDC/ACDC - Live [2CD Collectors Edition] 1992 (2008 Japanese SICP-1714-5)/Cd 2/10 ACDC - T.N.T..flac'
p1029
aS"/media/dat/mus/ACDC/ACDC - Live [2CD Collectors Edition] 1992 (2008 Japanese SICP-1714-5)/Cd 2/03 ACDC - That's The Way I Wanna Rock 'n' Roll.flac"
p1030
aS'/media/dat/mus/ACDC/ACDC - Live [2CD Collectors Edition] 1992 (2008 Japanese SICP-1714-5)/Cd 2/04 ACDC - High Voltage.flac'
p1031
aS'/media/dat/mus/ACDC/ACDC - Live [2CD Collectors Edition] 1992 (2008 Japanese SICP-1714-5)/Cd 2/07 ACDC - Let There Be Rock.flac'
p1032
aS'/media/dat/mus/ACDC/ACDC - Live [2CD Collectors Edition] 1992 (2008 Japanese SICP-1714-5)/Cd 2/08 ACDC - Bonny.flac'
p1033
aS'/media/dat/mus/ACDC/ACDC - Live [2CD Collectors Edition] 1992 (2008 Japanese SICP-1714-5)/Cd 2/09 ACDC - Highway To Hell.flac'
p1034
aS'/media/dat/mus/ACDC/ACDC - Live [2CD Collectors Edition] 1992 (2008 Japanese SICP-1714-5)/Cd 1/08 ACDC - Jailbreak.flac'
p1035
aS"/media/dat/mus/ACDC/ACDC - Live [2CD Collectors Edition] 1992 (2008 Japanese SICP-1714-5)/Cd 1/10 ACDC - The Razor's Edge.flac"
p1036
aS'/media/dat/mus/ACDC/ACDC - Live [2CD Collectors Edition] 1992 (2008 Japanese SICP-1714-5)/Cd 1/03 ACDC - Back In Black.flac'
p1037
aS'/media/dat/mus/ACDC/ACDC - Live [2CD Collectors Edition] 1992 (2008 Japanese SICP-1714-5)/Cd 1/06 ACDC - Heatseeker.flac'
p1038
aS'/media/dat/mus/ACDC/ACDC - Live [2CD Collectors Edition] 1992 (2008 Japanese SICP-1714-5)/Cd 1/01 ACDC - Thunderstruck.flac'
p1039
aS'/media/dat/mus/ACDC/ACDC - Live [2CD Collectors Edition] 1992 (2008 Japanese SICP-1714-5)/Cd 1/07 ACDC - Fire Your Guns.flac'
p1040
aS'/media/dat/mus/ACDC/ACDC - Live [2CD Collectors Edition] 1992 (2008 Japanese SICP-1714-5)/Cd 1/11 ACDC - Dirty Deeds Done Dirt Cheap.flac'
p1041
aS'/media/dat/mus/ACDC/ACDC - Live [2CD Collectors Edition] 1992 (2008 Japanese SICP-1714-5)/Cd 1/05 ACDC - Who Made Who.flac'
p1042
aS'/media/dat/mus/ACDC/ACDC - Live [2CD Collectors Edition] 1992 (2008 Japanese SICP-1714-5)/Cd 1/04 ACDC - Sin City.flac'
p1043
aS'/media/dat/mus/ACDC/ACDC - Live [2CD Collectors Edition] 1992 (2008 Japanese SICP-1714-5)/Cd 1/12 ACDC - Moneytalks.flac'
p1044
aS'/media/dat/mus/ACDC/ACDC - Live [2CD Collectors Edition] 1992 (2008 Japanese SICP-1714-5)/Cd 1/02 ACDC - Shoot To Thrill.flac'
p1045
aS'/media/dat/mus/ACDC/ACDC - Live [2CD Collectors Edition] 1992 (2008 Japanese SICP-1714-5)/Cd 1/09 ACDC - The Jack.flac'
p1046
aS'/media/dat/mus/ACDC/ACDC - Stiff Upper Lip 2000 (2008 Japanese SICP-1718)/04 ACDC - Hold Me Back.flac'
p1047
aS'/media/dat/mus/ACDC/ACDC - Stiff Upper Lip 2000 (2008 Japanese SICP-1718)/05 ACDC - Safe In New York City.flac'
p1048
aS'/media/dat/mus/ACDC/ACDC - Stiff Upper Lip 2000 (2008 Japanese SICP-1718)/11 ACDC - All Screwed Up.flac'
p1049
aS"/media/dat/mus/ACDC/ACDC - Stiff Upper Lip 2000 (2008 Japanese SICP-1718)/06 ACDC - Can't Stand Still.flac"
p1050
aS'/media/dat/mus/ACDC/ACDC - Stiff Upper Lip 2000 (2008 Japanese SICP-1718)/03 ACDC - House Of Jazz.flac'
p1051
aS'/media/dat/mus/ACDC/ACDC - Stiff Upper Lip 2000 (2008 Japanese SICP-1718)/12 ACDC - Give It Up.flac'
p1052
aS'/media/dat/mus/ACDC/ACDC - Stiff Upper Lip 2000 (2008 Japanese SICP-1718)/02 ACDC - Meltdown.flac'
p1053
aS'/media/dat/mus/ACDC/ACDC - Stiff Upper Lip 2000 (2008 Japanese SICP-1718)/09 ACDC - Damned.flac'
p1054
aS'/media/dat/mus/ACDC/ACDC - Stiff Upper Lip 2000 (2008 Japanese SICP-1718)/10 ACDC - Come And Get It.flac'
p1055
aS"/media/dat/mus/ACDC/ACDC - Stiff Upper Lip 2000 (2008 Japanese SICP-1718)/07 ACDC - Can't Stop Rock 'n' Roll.flac"
p1056
aS'/media/dat/mus/ACDC/ACDC - Stiff Upper Lip 2000 (2008 Japanese SICP-1718)/01 ACDC - Stiff Upper Lip.flac'
p1057
aS'/media/dat/mus/ACDC/ACDC - Stiff Upper Lip 2000 (2008 Japanese SICP-1718)/08 ACDC - Satellite Blues.flac'
p1058
aS"/media/dat/mus/ACDC/ACDC - The Razor's Edge (2008 Japanese SICP-1712) 1990/The Razors Edge.flac"
p1059
aS"/media/dat/mus/ACDC/ACDC - The Razor's Edge (2008 Japanese SICP-1712) 1990/Shot Of Love.flac"
p1060
aS"/media/dat/mus/ACDC/ACDC - The Razor's Edge (2008 Japanese SICP-1712) 1990/Thunderstruck.flac"
p1061
aS"/media/dat/mus/ACDC/ACDC - The Razor's Edge (2008 Japanese SICP-1712) 1990/If You Dare.flac"
p1062
aS"/media/dat/mus/ACDC/ACDC - The Razor's Edge (2008 Japanese SICP-1712) 1990/Got You By The Balls.flac"
p1063
aS"/media/dat/mus/ACDC/ACDC - The Razor's Edge (2008 Japanese SICP-1712) 1990/Goodbye And Good Riddance To Bad Luck.flac"
p1064
aS"/media/dat/mus/ACDC/ACDC - The Razor's Edge (2008 Japanese SICP-1712) 1990/Are You Ready.flac"
p1065
aS"/media/dat/mus/ACDC/ACDC - The Razor's Edge (2008 Japanese SICP-1712) 1990/Mistress For Christmas.flac"
p1066
aS"/media/dat/mus/ACDC/ACDC - The Razor's Edge (2008 Japanese SICP-1712) 1990/Let's Make It.flac"
p1067
aS"/media/dat/mus/ACDC/ACDC - The Razor's Edge (2008 Japanese SICP-1712) 1990/Moneytalks.flac"
p1068
aS"/media/dat/mus/ACDC/ACDC - The Razor's Edge (2008 Japanese SICP-1712) 1990/Fire Your Guns.flac"
p1069
aS"/media/dat/mus/ACDC/ACDC - The Razor's Edge (2008 Japanese SICP-1712) 1990/Rock Your Heart Out.flac"
p1070
aS'/media/dat/mus/ACDC/ACDC High Voltage 1976/AC-DC - High Voltage - 06 - Can I Sit Next To You Girl !.flac'
p1071
aS'/media/dat/mus/ACDC/ACDC High Voltage 1976/AC-DC - High Voltage - 05 - TNT !.flac'
p1072
aS'/media/dat/mus/ACDC/ACDC High Voltage 1976/AC-DC - High Voltage - 04 - Live Wire !.flac'
p1073
aS'/media/dat/mus/ACDC/ACDC - If You Want Bad Blood 1978 (2008 Japanese SICP-1704)/03 ACDC - Bad Boy Boogie.flac'
p1074
aS"/media/dat/mus/ACDC/ACDC - If You Want Bad Blood 1978 (2008 Japanese SICP-1704)/02 ACDC - Hell Ain't A Bad Place To Be.flac"
p1075
aS'/media/dat/mus/ACDC/ACDC - If You Want Bad Blood 1978 (2008 Japanese SICP-1704)/10 ACDC - Rocker.flac'
p1076
aS'/media/dat/mus/ACDC/ACDC - If You Want Bad Blood 1978 (2008 Japanese SICP-1704)/01 ACDC - Riff Raff.flac'
p1077
aS'/media/dat/mus/ACDC/ACDC - If You Want Bad Blood 1978 (2008 Japanese SICP-1704)/06 ACDC - Whole Lotta Rosie.flac'
p1078
aS'/media/dat/mus/ACDC/ACDC - If You Want Bad Blood 1978 (2008 Japanese SICP-1704)/04 ACDC - The Jack.flac'
p1079
aS"/media/dat/mus/ACDC/ACDC - If You Want Bad Blood 1978 (2008 Japanese SICP-1704)/07 ACDC - Rock 'N' Roll Damnation.flac"
p1080
aS'/media/dat/mus/ACDC/ACDC - If You Want Bad Blood 1978 (2008 Japanese SICP-1704)/05 ACDC - Problem Child.flac'
p1081
aS'/media/dat/mus/ACDC/ACDC - If You Want Bad Blood 1978 (2008 Japanese SICP-1704)/08 ACDC - High Voltage.flac'
p1082
aS'/media/dat/mus/ACDC/ACDC - If You Want Bad Blood 1978 (2008 Japanese SICP-1704)/09 ACDC - Let There Be Rock.flac'
p1083
aS'/media/dat/mus/ACDC/ACDC - Flick Of The Switch 1986 (2008 Japanese SICP-1709)/04 ACDC - Nervous Shakedown.flac'
p1084
aS'/media/dat/mus/ACDC/ACDC - Flick Of The Switch 1986 (2008 Japanese SICP-1709)/09 ACDC - Badlands.flac'
p1085
aS'/media/dat/mus/ACDC/ACDC - Flick Of The Switch 1986 (2008 Japanese SICP-1709)/10 ACDC - Brain Shake.flac'
p1086
aS'/media/dat/mus/ACDC/ACDC - Flick Of The Switch 1986 (2008 Japanese SICP-1709)/01 ACDC - Rising Power.flac'
p1087
aS'/media/dat/mus/ACDC/ACDC - Flick Of The Switch 1986 (2008 Japanese SICP-1709)/08 ACDC - Bedlam In Belgium.flac'
p1088
aS'/media/dat/mus/ACDC/ACDC - Flick Of The Switch 1986 (2008 Japanese SICP-1709)/06 ACDC - Guns For Hire.flac'
p1089
aS'/media/dat/mus/ACDC/ACDC - Flick Of The Switch 1986 (2008 Japanese SICP-1709)/05 ACDC - Landslide.flac'
p1090
aS'/media/dat/mus/ACDC/ACDC - Flick Of The Switch 1986 (2008 Japanese SICP-1709)/07 ACDC - Deep In The Hole.flac'
p1091
aS'/media/dat/mus/ACDC/ACDC - Flick Of The Switch 1986 (2008 Japanese SICP-1709)/02 ACDC - This House Is On Fire.flac'
p1092
aS'/media/dat/mus/ACDC/ACDC - Flick Of The Switch 1986 (2008 Japanese SICP-1709)/03 ACDC - Flick Of The Switch.flac'
p1093
aS'/media/dat/mus/Pat Metheny Group/The Road To You/Naked Moon.flac'
p1094
aS'/media/dat/mus/Bran Van 3000 - Discosis/Bran Van 3000 - 03. Montr\xc3\xa9al.flac'
p1095
aS'/media/dat/mus/Bran Van 3000 - Discosis/Bran Van 3000 - 16. Love Clich\xc3\xa9.flac'
p1096
aS'/media/dat/mus/NIN/NIN - 2005 - [halo 18] the hand that feeds/The Hand That Feeds (Dub Mix By Phot.mp3'
p1097
aS'/media/dat/mus/NIN/NIN - 2005 - [halo 18] the hand that feeds/The Hand That Feeds [straight Mix].mp3'
p1098
aS'/media/dat/mus/NIN/NIN - 2005 - [halo 18] the hand that feeds/The Hand That Feeds (Dfa Remix).mp3'
p1099
aS'/media/dat/mus/NIN/NIN - 2005 - [halo 18] the hand that feeds/The Hand That Feeds [dub Mix].mp3'
p1100
aS'/media/dat/mus/NIN/NIN - 2005 - [halo 18] the hand that feeds/The Hand That Feeds (Straight Mix By.mp3'
p1101
aS'/media/dat/mus/NIN/NIN - 2006 - [halo 21] everyday is exactly the same/01-every_day_is_exactly_the_same-radial.mp3'
p1102
aS'/media/dat/mus/NIN/NIN - 2006 - [halo 21] everyday is exactly the same/05-only_(richard_x_mix)-radial.mp3'
p1103
aS'/media/dat/mus/NIN/NIN - 2006 - [halo 21] everyday is exactly the same/04-only_(el_p_mix)-radial.mp3'
p1104
aS'/media/dat/mus/NIN/NIN - 2006 - [halo 21] everyday is exactly the same/02-the_hand_that_feeds_(dfa_mix)-radial.mp3'
p1105
aS'/media/dat/mus/NIN/NIN - 2006 - [halo 21] everyday is exactly the same/03-the_hand_that_feeds_(photek_straight_mix)-radial.mp3'
p1106
aS'/media/dat/mus/NIN/NIN - 2006 - [halo 21] everyday is exactly the same/06-every_day_is_exactly_the_same_(sam_fog_vs_carlos_d_mix)-radial.mp3'
p1107
aS'/media/dat/mus/NIN/NIN - 2006 - [halo 21] everyday is exactly the same/07-the_hand_that_feeds_(dub_instumental_mix)-radial.mp3'
p1108
aS'/media/dat/mus/NIN/The Fragile/The Fragile [Right]/Nine Inch Nails - 03 - Where Is Everybody\xc2\xbf.flac'
p1109
aS'/media/dat/mus/Elfonia/Elfonia - This Sonic Landscape 2005/06- Camal\xc3\xa9on.mp3'
p1110
aS'/media/dat/mus/Elfonia/Elfonia - This Sonic Landscape 2005/02- M\xc3\xa0quina.mp3'
p1111
aS'/media/dat/mus/Elfonia/Elfonia - Elfonia 2003/08-a\xc3\xb1oranza.mp3'
p1112
aS'/media/dat/mus/Nascent/03 Without Virgil.flac'
p1113
aS'/media/dat/mus/Nascent/04 Synesthesia.flac'
p1114
aS'/media/dat/mus/Nascent/01 Suburban Mornings.flac'
p1115
aS'/media/dat/mus/Nascent/05 Heraclitus Was Right.flac'
p1116
aS'/media/dat/mus/Nascent/02 Beyond Logic.flac'
p1117
aS'/media/dat/mus/Nascent/06 Swallowed By The Sea.flac'
p1118
aS'/media/dat/mus/VA - New Jazz Funk (2CD-2009)/202 - The New Mastersounds - Idle Time (Lack Of Afro Remix).mp3'
p1119
aS'/media/dat/mus/VA - New Jazz Funk (2CD-2009)/105 - Parov Stelar - Chambermaid Swing.mp3'
p1120
aS'/media/dat/mus/VA - New Jazz Funk (2CD-2009)/103 - Kinny And Horne - Forgetting To Remember.mp3'
p1121
aS'/media/dat/mus/VA - New Jazz Funk (2CD-2009)/109 - Slow Train Soul - Ma Soucouyant.mp3'
p1122
aS'/media/dat/mus/VA - New Jazz Funk (2CD-2009)/203 - Three Minutes With Mark Murphy - Secrets (Crystal Cru Remix).mp3'
p1123
aS'/media/dat/mus/VA - New Jazz Funk (2CD-2009)/106 - The Hi-Fly Orchestra Ft. Miriam Aida - Polonesa.mp3'
p1124
aS'/media/dat/mus/VA - New Jazz Funk (2CD-2009)/108 - Sofi Hellborg - Its Ok Now.mp3'
p1125
aS'/media/dat/mus/VA - New Jazz Funk (2CD-2009)/104 - Kinny Ft. Nostalgia 77 - Desire.mp3'
p1126
aS'/media/dat/mus/VA - New Jazz Funk (2CD-2009)/207 - The Hi-Fly Orchestra Ft. Miriam Aida - Chove Chova.mp3'
p1127
aS'/media/dat/mus/VA - New Jazz Funk (2CD-2009)/101 - Belleruche - Alice.mp3'
p1128
aS'/media/dat/mus/VA - New Jazz Funk (2CD-2009)/102 - Quantic Ft. Alice Russell - So Long.mp3'
p1129
aS'/media/dat/mus/VA - New Jazz Funk (2CD-2009)/206 - Sofi Hellborg - Maybe I Was Dreaming.mp3'
p1130
aS'/media/dat/mus/VA - New Jazz Funk (2CD-2009)/107 - Ppp Ft. Karma - On A Cloud.mp3'
p1131
aS'/media/dat/mus/VA - New Jazz Funk (2CD-2009)/201 - Watch Tv Ft. Eddie Lovana - The Manual.mp3'
p1132
aS'/media/dat/mus/VA - New Jazz Funk (2CD-2009)/110 - Fauna Flash Ft. Deidra Jones - Ten (Kyoto Jazz Massive Remix).mp3'
p1133
aS'/media/dat/mus/VA - New Jazz Funk (2CD-2009)/209 - Parov Stelar - Silent Snow (Originalversion).mp3'
p1134
aS'/media/dat/mus/VA - New Jazz Funk (2CD-2009)/205 - Beat Assilant - Hard Twelve (The Payout).mp3'
p1135
aS'/media/dat/mus/VA - New Jazz Funk (2CD-2009)/210 - Nola Grey - Starlight (Club Version).mp3'
p1136
aS'/media/dat/mus/VA - New Jazz Funk (2CD-2009)/204 - Jafrosax Ft. Yukimi Nagano - Drawn 2 U.mp3'
p1137
aS'/media/dat/mus/VA - New Jazz Funk (2CD-2009)/208 - The Hi-Fly Orchestra - Lucky Cat.mp3'
p1138
aS'/media/dat/mus/Rammstein/Sehnsucht/6 B\xc3\xbcck Dich.flac'
p1139
aS'/media/dat/mus/Rammstein/Sehnsucht/11 K\xc3\xbcss Mich (Fellfrosch).flac'
p1140
aS'/media/dat/mus/Bonobo/Animal Magic/._09 - Sugar Rhyme.flac'
p1141
aS'/media/dat/mus/Bonobo/Animal Magic/._04 - Kota.flac'
p1142
aS'/media/dat/mus/Bonobo/Animal Magic/._03 - Dinosaurs.flac'
p1143
aS'/media/dat/mus/Bonobo/Animal Magic/._10 - Silver.flac'
p1144
aS'/media/dat/mus/Bonobo/Animal Magic/._05 - Terrapin.flac'
p1145
aS'/media/dat/mus/Bonobo/Animal Magic/._01 - Intro.flac'
p1146
aS'/media/dat/mus/Bonobo/Animal Magic/._07 - Shadowtricks.flac'
p1147
aS'/media/dat/mus/Bonobo/Animal Magic/._08 - Gypsy.flac'
p1148
aS'/media/dat/mus/Bonobo/Animal Magic/._02 - Sleepy Seven.flac'
p1149
aS'/media/dat/mus/Bonobo/Animal Magic/._06 - The Plug.flac'
p1150
aS'/media/dat/mus/Chopin/Piano Concerto 2 - Long/1-Maestoso.flac'
p1151
aS'/media/dat/mus/Chopin/Piano Concerto 2 - Long/3-Allegro vivace.flac'
p1152
aS'/media/dat/mus/Chopin/Piano Concerto 2 - Long/2-Larghetto.flac'
p1153
aS'/media/dat/mus/Beau dommage/(11)Marcher tout seul la nuit sur une route de campagne.flac'
p1154
aS'/media/dat/mus/Beau dommage/(07)Rive-Sud.flac'
p1155
aS'/media/dat/mus/Beau dommage/(02)Le retour du fl\xc3\xa2neur.flac'
p1156
aS'/media/dat/mus/Beau dommage/(06)Du milieu du pont Jacques-Cartier.flac'
p1157
aS'/media/dat/mus/Beau dommage/(08)Grande chemin\xc3\xa9e.flac'
p1158
aS'/media/dat/mus/Beau dommage/(10)Sur la v\xc3\xa9randa.flac'
p1159
aS'/media/dat/mus/Beau dommage/(04)Quand Rose va chez son fils.flac'
p1160
aS"/media/dat/mus/Beau dommage/(09)J'aimais l'hiver.flac"
p1161
aS'/media/dat/mus/Beau dommage/(01)La nouvelle saison.flac'
p1162
aS'/media/dat/mus/Beau dommage/(05)\xc3\x89chapp\xc3\xa9 belle.flac'
p1163
aS'/media/dat/mus/Beau dommage/(03)Tout simplement jaloux....flac'
p1164
aS'/media/dat/mus/Genesis/Foxtrot/02 time table.flac'
p1165
aS'/media/dat/mus/IQ/IQ - Subterranea (1997)/Disc 2/06-Somewhere in Time.flac'
p1166
aS'/media/dat/mus/IQ/IQ - Subterranea (1997)/Disc 2/05-Unsolid Ground.flac'
p1167
aS'/media/dat/mus/IQ/IQ - Subterranea (1997)/Disc 1/08-Infernal Chorus.flac'
p1168
aS'/media/dat/mus/IQ/IQ - Subterranea (1997)/Disc 1/11-State of Mine.flac'
p1169
aS'/media/dat/mus/IQ/IQ - Subterranea (1997)/Disc 1/04-Sleepless Incidental.flac'
p1170
aS'/media/dat/mus/IQ/IQ - Nomzamo (1987)/10-No Love Lost (Piano-Vocal Version).flac'
p1171
aS'/media/dat/mus/IQ/IQ - Nomzamo (1987)/04-Still Life.flac'
p1172
aS'/media/dat/mus/IQ/IQ - Nomzamo (1987)/07-Screaming.flac'
p1173
aS'/media/dat/mus/IQ/IQ - Nomzamo (1987)/08-Common Ground.flac'
p1174
aS'/media/dat/mus/IQ/IQ - Nomzamo (1987)/11-Common Ground (Live).flac'
p1175
aS'/media/dat/mus/IQ/IQ - Nomzamo (1987)/05-Passing Strangers.flac'
p1176
aS'/media/dat/mus/IQ/IQ - Nomzamo (1987)/03-Nomzamo.flac'
p1177
aS'/media/dat/mus/IQ/IQ - Nomzamo (1987)/09-Colurflow.flac'
p1178
aS'/media/dat/mus/IQ/IQ - Nomzamo (1987)/01-No Love Lost.flac'
p1179
aS'/media/dat/mus/IQ/IQ - Nomzamo (1987)/06-Human Nature.flac'
p1180
aS'/media/dat/mus/IQ/IQ - Are You Sitting Comfortably (1989)/09-Nothing At All (Live).flac'
p1181
aS'/media/dat/mus/IQ/IQ - Tales from the Lush Attic (1983)/06-Just Changing Hands.flac'
p1182
aS"/media/dat/mus/IQ/IQ - J'ai Pollette D'arnu (1991)/01-It All Stops Here.flac"
p1183
aS"/media/dat/mus/IQ/IQ - J'ai Pollette D'arnu (1991)/06-Common Ground.flac"
p1184
aS"/media/dat/mus/IQ/IQ - J'ai Pollette D'arnu (1991)/05-Medley.flac"
p1185
aS"/media/dat/mus/IQ/IQ - J'ai Pollette D'arnu (1991)/02-Sera Sera.flac"
p1186
aS"/media/dat/mus/IQ/IQ - J'ai Pollette D'arnu (1991)/07-Promises.flac"
p1187
aS"/media/dat/mus/IQ/IQ - J'ai Pollette D'arnu (1991)/03-Intelligence Quotient.flac"
p1188
aS"/media/dat/mus/IQ/IQ - J'ai Pollette D'arnu (1991)/08-Wurensh.flac"
p1189
aS"/media/dat/mus/Deep Purple/Fireball/._03 Demon's eye.flac"
p1190
aS'/media/dat/mus/Deep Purple/Abandon/11 Evil Louie.flac'
p1191
aS'/media/dat/mus/Deep Purple/Perfect Strangers/01 Knocking At Your Back Door.flac'
p1192
aS'/media/dat/mus/Deep Purple/Made In Europe/01 Burn.flac'
p1193
aS"/media/dat/mus/Deep Purple/Come Taste The Band/03 Gettin' Tighter.flac"
p1194
aS"/media/dat/mus/Deep Purple/Come Taste The Band/01 Comin' Home.flac"
p1195
aS'/media/dat/mus/Tangerine Dream/Hyperborea/02 hyperborea.flac'
p1196
aS'/media/dat/mus/Mr. Scruff/2006 - Mr. Scruff\xc2\xb4s Big Chill Classics/CD 2/08 - Vin Landers & Fudge Fingas - Don\xc2\xb4t Fret It.mp3'
p1197
aS'/media/dat/mus/Mr. Scruff/2006 - Mr. Scruff\xc2\xb4s Big Chill Classics/CD 2/14 - Das Goldene Zeitalter - Vision.mp3'
p1198
aS'/media/dat/mus/Mr. Scruff/2006 - Mr. Scruff\xc2\xb4s Big Chill Classics/CD 2/10 - G Love & Special Sauce - Blues Music.mp3'
p1199
aS'/media/dat/mus/Mr. Scruff/2006 - Mr. Scruff\xc2\xb4s Big Chill Classics/CD 2/09 - Fingathing - You Fly Me.mp3'
p1200
aS'/media/dat/mus/Mr. Scruff/2006 - Mr. Scruff\xc2\xb4s Big Chill Classics/CD 2/12 - Deyampert - Held Him First.mp3'
p1201
aS'/media/dat/mus/Mr. Scruff/2006 - Mr. Scruff\xc2\xb4s Big Chill Classics/CD 2/02 - Rick James - Getting It On (In The Sunshine).mp3'
p1202
aS'/media/dat/mus/Mr. Scruff/2006 - Mr. Scruff\xc2\xb4s Big Chill Classics/CD 2/05 - Donald Byrd - Kofi.mp3'
p1203
aS'/media/dat/mus/Mr. Scruff/2006 - Mr. Scruff\xc2\xb4s Big Chill Classics/CD 2/13 - Home Life - Strangers.mp3'
p1204
aS'/media/dat/mus/Mr. Scruff/2006 - Mr. Scruff\xc2\xb4s Big Chill Classics/CD 2/07 - Odyssey - Our Lives Are Shaped By What We Love.mp3'
p1205
aS'/media/dat/mus/Mr. Scruff/2006 - Mr. Scruff\xc2\xb4s Big Chill Classics/CD 2/04 - Dom E Aboliciao Salvador - Hei Voce.mp3'
p1206
aS'/media/dat/mus/Mr. Scruff/2006 - Mr. Scruff\xc2\xb4s Big Chill Classics/CD 2/03 - Sarah Winton - Summer Brass (The Same Old Same Old).mp3'
p1207
aS"/media/dat/mus/Mr. Scruff/2006 - Mr. Scruff\xc2\xb4s Big Chill Classics/CD 2/01 - D'Angelo - Everybody Loves The Sunshine.mp3"
p1208
aS'/media/dat/mus/Mr. Scruff/2006 - Mr. Scruff\xc2\xb4s Big Chill Classics/CD 2/11 - Ernesto - Devil\xc2\xb4s Gotta Run.mp3'
p1209
aS'/media/dat/mus/Mr. Scruff/2006 - Mr. Scruff\xc2\xb4s Big Chill Classics/CD 2/06 - Moacir Santos - Off And On.mp3'
p1210
aS'/media/dat/mus/Mr. Scruff/2006 - Mr. Scruff\xc2\xb4s Big Chill Classics/CD 1/13 - Fela Ransom Kuti & Nigeria 70 - My Lady Frustration.mp3'
p1211
aS'/media/dat/mus/Mr. Scruff/2006 - Mr. Scruff\xc2\xb4s Big Chill Classics/CD 1/09 - Treva Whateva - Music\xc2\xb4s Made Of Memories.mp3'
p1212
aS'/media/dat/mus/Mr. Scruff/2006 - Mr. Scruff\xc2\xb4s Big Chill Classics/CD 1/08 - Extended Spirit - Illicity.mp3'
p1213
aS'/media/dat/mus/Mr. Scruff/2006 - Mr. Scruff\xc2\xb4s Big Chill Classics/CD 1/03 - Gary Bartz & NTU Troop - Celestial Blues.mp3'
p1214
aS'/media/dat/mus/Mr. Scruff/2006 - Mr. Scruff\xc2\xb4s Big Chill Classics/CD 1/05 - Johnny Hammond - Can\xc2\xb4t We Smile.mp3'
p1215
aS'/media/dat/mus/Mr. Scruff/2006 - Mr. Scruff\xc2\xb4s Big Chill Classics/CD 1/04 - Dennis Yost & The Classics IV - All In Your Mind.mp3'
p1216
aS'/media/dat/mus/Mr. Scruff/2006 - Mr. Scruff\xc2\xb4s Big Chill Classics/CD 1/11 - Glen Brown & King Tubby - Wicked Can\xc2\xb4t Run This Dub.mp3'
p1217
aS'/media/dat/mus/Mr. Scruff/2006 - Mr. Scruff\xc2\xb4s Big Chill Classics/CD 1/07 - Nobukazu Takemura - Serene.mp3'
p1218
aS'/media/dat/mus/Mr. Scruff/2006 - Mr. Scruff\xc2\xb4s Big Chill Classics/CD 1/10 - In Crowd - Back A Yard.mp3'
p1219
aS'/media/dat/mus/Mr. Scruff/2006 - Mr. Scruff\xc2\xb4s Big Chill Classics/CD 1/12 - Daweh Congo - Provherbs.mp3'
p1220
aS'/media/dat/mus/Mr. Scruff/2006 - Mr. Scruff\xc2\xb4s Big Chill Classics/CD 1/01 - Mike Westbrook - Metropolis IX.mp3'
p1221
aS'/media/dat/mus/Mr. Scruff/2006 - Mr. Scruff\xc2\xb4s Big Chill Classics/CD 1/14 - Grady Tate - Moondance.mp3'
p1222
aS'/media/dat/mus/Mr. Scruff/2006 - Mr. Scruff\xc2\xb4s Big Chill Classics/CD 1/06 - Paul Hunter - Peaceful Morning.mp3'
p1223
aS'/media/dat/mus/Mr. Scruff/2006 - Mr. Scruff\xc2\xb4s Big Chill Classics/CD 1/02 - Ousmane Kouyate Band - N Nafanta.mp3'
p1224
aS'/media/dat/mus/Guns N Roses/Appetite For Destruction/6. Paradise City.flac'
p1225
aS'/media/dat/mus/Kabanjak/Grow/Switchstance Recordings - Grow - 04 Protassov - Let\xc2\xb4s Make Friends.flac'
p1226
aS'/media/dat/mus/Nirvana/Nevermind/01 - Nirvana - Smells like teen spirit.flac'
p1227
aS'/media/dat/mus/Nirvana/Nevermind/04 - Nirvana - Breed.flac'
p1228
aS'/media/dat/mus/Nirvana/Nevermind/02 - Nirvana - In Bloom.flac'
p1229
aS'/media/dat/mus/Nirvana/Nevermind/12 - Nirvana - Something in the Way.flac'
p1230
aS'/media/dat/mus/Nirvana/Nevermind/09 - Nirvana - Lounge Act.flac'
p1231
aS'/media/dat/mus/Nirvana/Nevermind/06 - Nirvana - Polly.flac'
p1232
aS'/media/dat/mus/Nirvana/Nevermind/10 - Nirvana - Stay Away.flac'
p1233
aS'/media/dat/mus/Nirvana/Nevermind/03 - Nirvana - Come as You Are.flac'
p1234
aS'/media/dat/mus/Nirvana/Nevermind/11 - Nirvana - On A Plain.flac'
p1235
aS'/media/dat/mus/Nirvana/Nevermind/08 - Nirvana - Drain You.flac'
p1236
aS'/media/dat/mus/Nirvana/Nevermind/07 - Nirvana - Territorial Pissings.flac'
p1237
aS'/media/dat/mus/Nirvana/Nevermind/05 - Nirvana - Lithium.flac'
p1238
aS'/media/dat/mus/Louis-Jean Cormier/Le Treizi\xc3\xa8me \xc3\x89tage/Louis-Jean Cormier - Le Treizi\xc3\xa8me \xc3\x89tage - 03 Transistors.flac'
p1239
aS"/media/dat/mus/Louis-Jean Cormier/Le Treizi\xc3\xa8me \xc3\x89tage/Louis-Jean Cormier - Le Treizi\xc3\xa8me \xc3\x89tage - 02 Bull's Eye.flac"
p1240
aS'/media/dat/mus/Louis-Jean Cormier/Le Treizi\xc3\xa8me \xc3\x89tage/Louis-Jean Cormier - Le Treizi\xc3\xa8me \xc3\x89tage - 07 Le coeur en t\xc3\xa9flon.flac'
p1241
aS'/media/dat/mus/Louis-Jean Cormier/Le Treizi\xc3\xa8me \xc3\x89tage/Louis-Jean Cormier - Le Treizi\xc3\xa8me \xc3\x89tage - 10 Un refrain trop long.flac'
p1242
aS'/media/dat/mus/Louis-Jean Cormier/Le Treizi\xc3\xa8me \xc3\x89tage/Louis-Jean Cormier - Le Treizi\xc3\xa8me \xc3\x89tage - 12 La seule question.flac'
p1243
aS'/media/dat/mus/Louis-Jean Cormier/Le Treizi\xc3\xa8me \xc3\x89tage/Louis-Jean Cormier - Le Treizi\xc3\xa8me \xc3\x89tage - 06 Tout le monde en m\xc3\xaame temps.flac'
p1244
aS'/media/dat/mus/Louis-Jean Cormier/Le Treizi\xc3\xa8me \xc3\x89tage/Louis-Jean Cormier - Le Treizi\xc3\xa8me \xc3\x89tage - 01 La cassette.flac'
p1245
aS"/media/dat/mus/Louis-Jean Cormier/Le Treizi\xc3\xa8me \xc3\x89tage/Louis-Jean Cormier - Le Treizi\xc3\xa8me \xc3\x89tage - 04 J'ha\xc3\xafs les happy ends.flac"
p1246
aS'/media/dat/mus/Louis-Jean Cormier/Le Treizi\xc3\xa8me \xc3\x89tage/Louis-Jean Cormier - Le Treizi\xc3\xa8me \xc3\x89tage - 09 Un monstre.flac'
p1247
aS"/media/dat/mus/Louis-Jean Cormier/Le Treizi\xc3\xa8me \xc3\x89tage/Louis-Jean Cormier - Le Treizi\xc3\xa8me \xc3\x89tage - 08 L'ascenseur.flac"
p1248
aS"/media/dat/mus/Louis-Jean Cormier/Le Treizi\xc3\xa8me \xc3\x89tage/Louis-Jean Cormier - Le Treizi\xc3\xa8me \xc3\x89tage - 11 L'air.flac"
p1249
aS'/media/dat/mus/Louis-Jean Cormier/Le Treizi\xc3\xa8me \xc3\x89tage/Louis-Jean Cormier - Le Treizi\xc3\xa8me \xc3\x89tage - 05 Les chansons folles.flac'
p1250
aS"/media/dat/mus/Delerium - Odyssey/Delerium - Odyssey - The Remix Collection CD1/Delerium - Odyssey - The Remix Collection CD1 - 01 - Silence (DJ Ti\xc3\xabsto's in Search of Sunrise Remix).flac"
p1251
aS'/media/dat/mus/Bebo Best & Super Lounge Orchestra/2008 - D\xe2\x80\x99Jazzonga/09 - Soul Bossa Nova.mp3'
p1252
aS'/media/dat/mus/Bebo Best & Super Lounge Orchestra/2008 - D\xe2\x80\x99Jazzonga/12 - West And Soda.mp3'
p1253
aS'/media/dat/mus/Bebo Best & Super Lounge Orchestra/2008 - D\xe2\x80\x99Jazzonga/01 - Anytime Swingers.mp3'
p1254
aS'/media/dat/mus/Bebo Best & Super Lounge Orchestra/2008 - D\xe2\x80\x99Jazzonga/06 - Baise Moi.mp3'
p1255
aS'/media/dat/mus/Bebo Best & Super Lounge Orchestra/2008 - D\xe2\x80\x99Jazzonga/14 - This Is Jazz (Tantratribe Mix).mp3'
p1256
aS'/media/dat/mus/Bebo Best & Super Lounge Orchestra/2008 - D\xe2\x80\x99Jazzonga/02 - Oh Jeje.mp3'
p1257
aS'/media/dat/mus/Bebo Best & Super Lounge Orchestra/2008 - D\xe2\x80\x99Jazzonga/08 - Falar Do Tempo.mp3'
p1258
aS'/media/dat/mus/Bebo Best & Super Lounge Orchestra/2008 - D\xe2\x80\x99Jazzonga/11 - A 100-lounge Lizard.mp3'
p1259
aS'/media/dat/mus/Bebo Best & Super Lounge Orchestra/2008 - D\xe2\x80\x99Jazzonga/13 - Anytime Swingers (Magnetic 4 Remix).mp3'
p1260
aS'/media/dat/mus/Bebo Best & Super Lounge Orchestra/2008 - D\xe2\x80\x99Jazzonga/03 - Djazzonga.mp3'
p1261
aS'/media/dat/mus/Bebo Best & Super Lounge Orchestra/2008 - D\xe2\x80\x99Jazzonga/07 - Il Sorpasso.mp3'
p1262
aS'/media/dat/mus/Bebo Best & Super Lounge Orchestra/2008 - D\xe2\x80\x99Jazzonga/04 - Come As You Are.mp3'
p1263
aS'/media/dat/mus/Bebo Best & Super Lounge Orchestra/2008 - D\xe2\x80\x99Jazzonga/05 - Amarcord Jazz.mp3'
p1264
aS'/media/dat/mus/Bebo Best & Super Lounge Orchestra/2008 - D\xe2\x80\x99Jazzonga/10 - Je Taime Bb.mp3'
p1265
aS'/media/dat/mus/Bebo Best & Super Lounge Orchestra/2007 - Sitar & Bossa/10 - Life Is On Teh Sea.mp3'
p1266
aS'/media/dat/mus/Bebo Best & Super Lounge Orchestra/2007 - Sitar & Bossa/08 - Entao En Vou.mp3'
p1267
aS'/media/dat/mus/Bebo Best & Super Lounge Orchestra/2007 - Sitar & Bossa/05 - Beat Conductor.mp3'
p1268
aS'/media/dat/mus/Dream Theater/{2001} Live Scenes From New York/Disc 1/[03] Strange D\xc3\xa9j\xc3\xa0 Vu.flac'
p1269
aS'/media/dat/mus/Dream Theater/{2002} Six Degrees of Inner Turbulence/Part 2/[\xc2\xb01] The Glass Prison.flac'
p1270
aS'/media/dat/mus/Dream Theater/{2002} Six Degrees of Inner Turbulence/Part 2/[\xc2\xb05] Disappear.flac'
p1271
aS'/media/dat/mus/Dream Theater/{2002} Six Degrees of Inner Turbulence/Part 2/[\xc2\xb03] Misunderstood.flac'
p1272
aS'/media/dat/mus/Dream Theater/{2002} Six Degrees of Inner Turbulence/Part 2/[\xc2\xb04] The Great Debate.flac'
p1273
aS'/media/dat/mus/Dream Theater/{2002} Six Degrees of Inner Turbulence/Part 2/[\xc2\xb02] Blind Faith.flac'
p1274
aS'/media/dat/mus/Thunderdome/Hardcore.flac'
p1275
aS'/media/dat/mus/Thunderdome/Nonhslen Tustokken (Ode To Vortex).flac'
p1276
aS'/media/dat/mus/Thunderdome/Necronomicon.flac'
p1277
aS'/media/dat/mus/Thunderdome/Addicted 2 Raves (Buzz Fuzz Mix).flac'
p1278
aS"/media/dat/mus/Thunderdome/Fuckin' Hostile.flac"
p1279
aS'/media/dat/mus/Daft Punk/2006 - Human After All Remixes Limited Edition/01_daft_punk-robot_rock_(soulwax_remix).mp3'
p1280
aS'/media/dat/mus/Daft Punk/2006 - Human After All Remixes Limited Edition/09_daft_punk-technologic_(vitalic_remix).mp3'
p1281
aS'/media/dat/mus/Daft Punk/2006 - Human After All Remixes Limited Edition/06_daft_punk-human_after_all_(guy_man_after_all_justice_remix).mp3'
p1282
aS'/media/dat/mus/Daft Punk/2006 - Human After All Remixes Limited Edition/02_daft_punk-human_after_all_(sebastian_remix).mp3'
p1283
aS'/media/dat/mus/Daft Punk/2006 - Human After All Remixes Limited Edition/08_daft_punk-human_after_all_(alter_ego_remix).mp3'
p1284
aS'/media/dat/mus/Daft Punk/2006 - Human After All Remixes Limited Edition/05_daft_punk-the_prime_time_of_your_life_(para_one_remix).mp3'
p1285
aS'/media/dat/mus/Daft Punk/2006 - Human After All Remixes Limited Edition/04_daft_punk-the_brainwasher_(erol_alkans_horrorhouse_dub).mp3'
p1286
aS'/media/dat/mus/Daft Punk/2006 - Human After All Remixes Limited Edition/03_daft_punk-technologic_(peaches_no_logic_remix).mp3'
p1287
aS'/media/dat/mus/Daft Punk/2006 - Human After All Remixes Limited Edition/07_daft_punk-technologic_(digitalism_highway_to_paris_remix).mp3'
p1288
aS'/media/dat/mus/Daft Punk/2006 - Human After All Remixes Limited Edition/10_daft_punk-robot_rock_(daft_punk_maximum_overdrive_mix).mp3'
p1289
aS'/media/dat/mus/Daft Punk/Tron OST/._04 - Recognizer.flac'
p1290
aS'/media/dat/mus/Daft Punk/Tron OST/._06 - Arena.flac'
p1291
aS'/media/dat/mus/Daft Punk/Tron OST/._10 - Adagio For TRON.flac'
p1292
aS'/media/dat/mus/Daft Punk/Tron OST/._13 - Derezzed.flac'
p1293
aS'/media/dat/mus/Daft Punk/Tron OST/._07 - Rinzler.flac'
p1294
aS'/media/dat/mus/Daft Punk/Tron OST/._12 - End of Line.flac'
p1295
aS'/media/dat/mus/Daft Punk/Tron OST/._02 - The Grid.flac'
p1296
aS'/media/dat/mus/Daft Punk/Tron OST/._08 - The Game Has Changed.flac'
p1297
aS'/media/dat/mus/Daft Punk/Tron OST/._03 - The Son of Flynn.flac'
p1298
aS'/media/dat/mus/Daft Punk/Tron OST/._01 - Overture.flac'
p1299
aS'/media/dat/mus/Daft Punk/Tron OST/._09 - Outlands.flac'
p1300
aS'/media/dat/mus/Daft Punk/Tron OST/._05 - Armory.flac'
p1301
aS'/media/dat/mus/Daft Punk/Tron OST/._11 - Nocturne.flac'
p1302
aS'/media/dat/mus/Megadeth/So Far, So Good... So What!/07 - Liar.flac'
p1303
aS'/media/dat/mus/Megadeth/So Far, So Good... So What!/03 - Anarchy In The U.K..flac'
p1304
aS'/media/dat/mus/Peter Gabriel/III Melt/_Peter Gabriel - III.flac'
p1305
aS'/media/dat/mus/Peter Gabriel/Us/07 - Digging in the Dirt.flac'
p1306
aS'/media/dat/mus/Peter Gabriel/Scratch my back/10. Peter Gabriel - Apr\xc3\xa8s Moi.flac'
p1307
aS'/media/dat/mus/Peter Gabriel/IV/Peter Gabriel (IV).flac'
p1308
aS'/media/dat/mus/Daniel Lanois/Here Is What Is/04-Not Fighting Anymore.mp3'
p1309
aS'/media/dat/mus/Daniel Lanois/Here Is What Is/02-Where Will I Be.mp3'
p1310
aS'/media/dat/mus/Daniel Lanois/Here Is What Is/17-Joy.mp3'
p1311
aS'/media/dat/mus/Daniel Lanois/Here Is What Is/16-Sacred and Secular.mp3'
p1312
aS'/media/dat/mus/Daniel Lanois/Here Is What Is/12-I Like That.mp3'
p1313
aS'/media/dat/mus/Daniel Lanois/Here Is What Is/18-Luna Samba.mp3'
p1314
aS'/media/dat/mus/Daniel Lanois/Here Is What Is/08-Harry.mp3'
p1315
aS'/media/dat/mus/Daniel Lanois/Here Is What Is/14-Bladesteel.mp3'
p1316
aS'/media/dat/mus/Daniel Lanois/Here Is What Is/09-Bells Of Oaxaca.mp3'
p1317
aS'/media/dat/mus/Daniel Lanois/Here Is What Is/06-Blue Bus.mp3'
p1318
aS'/media/dat/mus/Daniel Lanois/Here Is What Is/07-Lovechild.mp3'
p1319
aS'/media/dat/mus/Daniel Lanois/Here Is What Is/15-Moondog.mp3'
p1320
aS'/media/dat/mus/Daniel Lanois/Here Is What Is/05-Beauty.mp3'
p1321
aS'/media/dat/mus/Daniel Lanois/Here Is What Is/01-Chest Of Drawers.mp3'
p1322
aS'/media/dat/mus/Daniel Lanois/Here Is What Is/03-Here Is What Is.mp3'
p1323
aS'/media/dat/mus/Daniel Lanois/Here Is What Is/10-This May Be The Last Time.mp3'
p1324
aS'/media/dat/mus/Daniel Lanois/Here Is What Is/13-Duo Glide.mp3'
p1325
aS'/media/dat/mus/Daniel Lanois/Here Is What Is/11-Smoke #6.mp3'
p1326
aS'/media/dat/mus/Daniel Lanois/Cool water (1993)/03-Still Water.mp3'
p1327
aS'/media/dat/mus/Daniel Lanois/Cool water (1993)/13-Rain Weather.mp3'
p1328
aS'/media/dat/mus/Daniel Lanois/Cool water (1993)/05-Unbreakable Chain.mp3'
p1329
aS'/media/dat/mus/Daniel Lanois/Cool water (1993)/10-The Messenger.mp3'
p1330
aS'/media/dat/mus/Daniel Lanois/Cool water (1993)/14-Elle Est Bonne Et Belle.mp3'
p1331
aS'/media/dat/mus/Daniel Lanois/Cool water (1993)/08-Brother LA.mp3'
p1332
aS'/media/dat/mus/Daniel Lanois/Cool water (1993)/12-Rocky World.mp3'
p1333
aS'/media/dat/mus/Daniel Lanois/Cool water (1993)/06-O Marie.mp3'
p1334
aS'/media/dat/mus/Daniel Lanois/Cool water (1993)/17-Steadfast.mp3'
p1335
aS'/media/dat/mus/Daniel Lanois/Cool water (1993)/04-The Maker  River Rise.mp3'
p1336
aS'/media/dat/mus/Daniel Lanois/Cool water (1993)/11-The Maker  River Rise.mp3'
p1337
aS'/media/dat/mus/Daniel Lanois/Cool water (1993)/02-For the Beauty of Wynona.mp3'
p1338
aS'/media/dat/mus/Daniel Lanois/Cool water (1993)/15-Another SIlver Morning.mp3'
p1339
aS'/media/dat/mus/Daniel Lanois/Cool water (1993)/07-Rocky World.mp3'
p1340
aS'/media/dat/mus/Daniel Lanois/Cool water (1993)/09-Irish Melody.mp3'
p1341
aS'/media/dat/mus/Daniel Lanois/Cool water (1993)/01-The Messenger.mp3'
p1342
aS'/media/dat/mus/Daniel Lanois/Cool water (1993)/18-Trembling.mp3'
p1343
aS'/media/dat/mus/Daniel Lanois/Cool water (1993)/16-Collection of Marie Claire.mp3'
p1344
aS'/media/dat/mus/Daniel Lanois/Belladonna (2005)/12 - Flametop green.mp3'
p1345
aS'/media/dat/mus/Daniel Lanois/Belladonna (2005)/13 - Todos santos.mp3'
p1346
aS'/media/dat/mus/Daniel Lanois/Belladonna (2005)/08 - The deadly nightshade.mp3'
p1347
aS'/media/dat/mus/Daniel Lanois/Belladonna (2005)/06 - Desert rose.mp3'
p1348
aS'/media/dat/mus/Daniel Lanois/Belladonna (2005)/07 - Carla.mp3'
p1349
aS'/media/dat/mus/Daniel Lanois/Belladonna (2005)/03 - Oaxaca.mp3'
p1350
aS'/media/dat/mus/Daniel Lanois/Belladonna (2005)/05 - Telco.mp3'
p1351
aS'/media/dat/mus/Daniel Lanois/Belladonna (2005)/11 - Panorama.mp3'
p1352
aS'/media/dat/mus/Daniel Lanois/Belladonna (2005)/04 - Agave.mp3'
p1353
aS'/media/dat/mus/Daniel Lanois/Belladonna (2005)/10 - Frozen.mp3'
p1354
aS'/media/dat/mus/Daniel Lanois/Belladonna (2005)/09 - Dusty.mp3'
p1355
aS'/media/dat/mus/Daniel Lanois/Belladonna (2005)/02 - Sketches.mp3'
p1356
aS"/media/dat/mus/Daniel Lanois/Daniel Lanois Acadie [Goldtop Edition]/18 The Source Of Fisherman's Daughter.flac"
p1357
aS'/media/dat/mus/Daniel Lanois/Daniel Lanois Acadie [Goldtop Edition]/13 The Maker [Early Bass & Lyrics].flac'
p1358
aS'/media/dat/mus/Daniel Lanois/Daniel Lanois Acadie [Goldtop Edition]/14 The Maker [Calypso Demo].flac'
p1359
aS"/media/dat/mus/Daniel Lanois/Daniel Lanois Acadie [Goldtop Edition]/11 St Ann's Gold.flac"
p1360
aS'/media/dat/mus/Daniel Lanois/Daniel Lanois Acadie [Goldtop Edition]/04 Jolie Louise.flac'
p1361
aS"/media/dat/mus/Daniel Lanois/Daniel Lanois Acadie [Goldtop Edition]/05 Fisherman's Daughter.flac"
p1362
aS'/media/dat/mus/Daniel Lanois/Daniel Lanois Acadie [Goldtop Edition]/12 Amazing Grace.flac'
p1363
aS'/media/dat/mus/Daniel Lanois/Daniel Lanois Acadie [Goldtop Edition]/16 Jolie Louise [Before Dublin].flac'
p1364
aS'/media/dat/mus/Daniel Lanois/Daniel Lanois Acadie [Goldtop Edition]/10 Ice.flac'
p1365
aS'/media/dat/mus/Daniel Lanois/Daniel Lanois Acadie [Goldtop Edition]/02 The Maker.flac'
p1366
aS'/media/dat/mus/Daniel Lanois/Daniel Lanois Acadie [Goldtop Edition]/17 Early Dourado Sketch.flac'
p1367
aS'/media/dat/mus/Daniel Lanois/Daniel Lanois Acadie [Goldtop Edition]/01 Still Water.flac'
p1368
aS'/media/dat/mus/Daniel Lanois/Daniel Lanois Acadie [Goldtop Edition]/07 Under A Stormy Sky.flac'
p1369
aS'/media/dat/mus/Daniel Lanois/Daniel Lanois Acadie [Goldtop Edition]/06 White Mustang II.flac'
p1370
aS'/media/dat/mus/Daniel Lanois/Daniel Lanois Acadie [Goldtop Edition]/08 Where The Hawkwind Kills.flac.flac'
p1371
aS"/media/dat/mus/Daniel Lanois/Daniel Lanois Acadie [Goldtop Edition]/15 Still Water [From Eno's House].flac"
p1372
aS'/media/dat/mus/Daniel Lanois/Trip (1993)/07 - bells of new orleans.mp3'
p1373
aS'/media/dat/mus/Daniel Lanois/Trip (1993)/11 - symphonic chords.mp3'
p1374
aS'/media/dat/mus/Daniel Lanois/Trip (1993)/02 - el conquistador.mp3'
p1375
aS'/media/dat/mus/Daniel Lanois/Trip (1993)/06 - mighty cloud.mp3'
p1376
aS'/media/dat/mus/Daniel Lanois/Trip (1993)/03 - rota.mp3'
p1377
aS'/media/dat/mus/Daniel Lanois/Trip (1993)/08 - beatrice.mp3'
p1378
aS'/media/dat/mus/Daniel Lanois/Trip (1993)/05 - diego painting.mp3'
p1379
aS'/media/dat/mus/Daniel Lanois/Trip (1993)/09 - two worlds.mp3'
p1380
aS'/media/dat/mus/Daniel Lanois/Trip (1993)/01 - needles.mp3'
p1381
aS'/media/dat/mus/Daniel Lanois/Trip (1993)/10 - white mustang ii.mp3'
p1382
aS'/media/dat/mus/Daniel Lanois/Trip (1993)/13 - blue waltz.mp3'
p1383
aS'/media/dat/mus/Daniel Lanois/Trip (1993)/14 - sonho dourado.mp3'
p1384
aS'/media/dat/mus/Daniel Lanois/Trip (1993)/04 - da luna funk.mp3'
p1385
aS'/media/dat/mus/Daniel Lanois/Trip (1993)/12 - romantic tremolo.mp3'
p1386
aS'/media/dat/mus/Daniel Lanois/For the Beauty of Wynona/06 The Collection of Marie Claire.flac'
p1387
aS'/media/dat/mus/Daniel Lanois/For the Beauty of Wynona/07 Death of a Train.flac'
p1388
aS'/media/dat/mus/Daniel Lanois/For the Beauty of Wynona/03 Still Learning How to Crowl.flac'
p1389
aS'/media/dat/mus/Daniel Lanois/For the Beauty of Wynona/12 For the Beauty of Wynona.flac'
p1390
aS'/media/dat/mus/Daniel Lanois/For the Beauty of Wynona/13 Rocky World.flac'
p1391
aS'/media/dat/mus/Daniel Lanois/For the Beauty of Wynona/09 Lotta Love to Give.flac'
p1392
aS'/media/dat/mus/Daniel Lanois/For the Beauty of Wynona/08 The Unbreakable Chain.flac'
p1393
aS'/media/dat/mus/Daniel Lanois/For the Beauty of Wynona/02 Brother L.A.flac'
p1394
aS'/media/dat/mus/Daniel Lanois/For the Beauty of Wynona/05 Waiting.flac'
p1395
aS'/media/dat/mus/Daniel Lanois/For the Beauty of Wynona/10 Indian Red.flac'
p1396
aS"/media/dat/mus/Daniel Lanois/For the Beauty of Wynona/11 Sleeping in the Devil's Bed.flac"
p1397
aS'/media/dat/mus/Daniel Lanois/For the Beauty of Wynona/01 The Messenger.flac'
p1398
aS'/media/dat/mus/Daniel Lanois/For the Beauty of Wynona/04 Beatrice.flac'
p1399
aS'/media/dat/mus/Hawkwind/In Search of Space/08 - Silver Machine (Original Single Version).flac'
p1400
aS'/media/dat/mus/Hawkwind/Wolverhampton & Potters Bar/Potters/01 Beast of Chaos.flac'
p1401
aS'/media/dat/mus/Hawkwind/Wolverhampton & Potters Bar/Potters/09 Silver Machine.flac'
p1402
aS'/media/dat/mus/Hawkwind/Wolverhampton & Potters Bar/Potters/08 Earth Calling.flac'
p1403
aS'/media/dat/mus/Hawkwind/Wolverhampton & Potters Bar/Potters/05 Master Of The Universe.flac'
p1404
aS'/media/dat/mus/Hawkwind/Wolverhampton & Potters Bar/Potters/04 Only Dreaming.flac'
p1405
aS"/media/dat/mus/Hawkwind/Wolverhampton & Potters Bar/Potters/02 You Shouldn't Do That.flac"
p1406
aS'/media/dat/mus/Hawkwind/Wolverhampton & Potters Bar/Potters/07 The Awakening.flac'
p1407
aS'/media/dat/mus/Hawkwind/Wolverhampton & Potters Bar/Potters/03 Technicians Of Spaceship Earth.flac'
p1408
aS'/media/dat/mus/Hawkwind/Wolverhampton & Potters Bar/Potters/06 Paranoia.flac'
p1409
aS'/media/dat/mus/Hawkwind/Wolverhampton & Potters Bar/Potters/10 Spirit Of The Age (narrative).flac'
p1410
aS'/media/dat/mus/Hawkwind/Wolverhampton & Potters Bar/Wolv/08 Paranoia.flac'
p1411
aS'/media/dat/mus/Hawkwind/Wolverhampton & Potters Bar/Wolv/02 Earth Calling.flac'
p1412
aS'/media/dat/mus/Hawkwind/Wolverhampton & Potters Bar/Wolv/09 Shores Of Paradise pt 2.flac'
p1413
aS'/media/dat/mus/Hawkwind/Wolverhampton & Potters Bar/Wolv/07 Master Of The Universe.flac'
p1414
aS'/media/dat/mus/Hawkwind/Wolverhampton & Potters Bar/Wolv/05 jam.flac'
p1415
aS'/media/dat/mus/Hawkwind/Wolverhampton & Potters Bar/Wolv/06 Shores Of Paradise pt 1.flac'
p1416
aS'/media/dat/mus/Hawkwind/Wolverhampton & Potters Bar/Wolv/04 Only Dreaming.flac'
p1417
aS"/media/dat/mus/Hawkwind/Wolverhampton & Potters Bar/Wolv/03 You Shouldn't Do That.flac"
p1418
aS'/media/dat/mus/Hawkwind/Wolverhampton & Potters Bar/Wolv/11 Sweet Mistress Of Pain.flac'
p1419
aS'/media/dat/mus/Hawkwind/Wolverhampton & Potters Bar/Wolv/10 Seeing It.flac'
p1420
aS'/media/dat/mus/Hawkwind/Wolverhampton & Potters Bar/Wolv/01 intro.flac'
p1421
aS'/media/dat/mus/Gazpacho/Tick Tock/Gazpacho - Tick Tock.flac'
p1422
aS'/media/dat/mus/Martin L\xc3\xa9on - Les Atomes/Nobody\xd1\x82\xd0\x90\xd0\xa9s free.mp3'
p1423
aS'/media/dat/mus/Martin L\xc3\xa9on - Les Atomes/All in.mp3'
p1424
aS'/media/dat/mus/Martin L\xc3\xa9on - Les Atomes/Je te prends par les cheveux.mp3'
p1425
aS'/media/dat/mus/Martin L\xc3\xa9on - Les Atomes/Va savoir pourquoi.mp3'
p1426
aS'/media/dat/mus/Martin L\xc3\xa9on - Les Atomes/Les atomes.mp3'
p1427
aS'/media/dat/mus/Martin L\xc3\xa9on - Les Atomes/Les deux h\xd0\x92rons.mp3'
p1428
aS'/media/dat/mus/Martin L\xc3\xa9on - Les Atomes/Le shack \xd0\x95 Chuck.mp3'
p1429
aS'/media/dat/mus/Martin L\xc3\xa9on - Les Atomes/Prends moi tel quel.mp3'
p1430
aS'/media/dat/mus/Martin L\xc3\xa9on - Les Atomes/L\xd1\x82\xd0\x90\xd0\xa9invisible.mp3'
p1431
aS'/media/dat/mus/Martin L\xc3\xa9on - Les Atomes/Je redeviens le vent.mp3'
p1432
aS'/media/dat/mus/Martin L\xc3\xa9on - Les Atomes/Un lac.mp3'
p1433
aS'/media/dat/mus/Marilyn Manson/Holy Wood (In The Shadow Of The Valley Of Death)/18 - King Kill 33\xc2\xb0.flac'
p1434
aS'/media/dat/mus/Nicolas Repac - Swing Swing (2004)/03 -  La P\xc3\xa8gre.mp3'
p1435
aS"/media/dat/mus/Nicolas Repac - Swing Swing (2004)/16 -  Tant Qu'il Y Aura Des \xc3\x89toiles.mp3"
p1436
aS'/media/dat/mus/Nicolas Repac - Swing Swing (2004)/06 -  Les Ann\xc3\xa9es Folles.mp3'
p1437
aS'/media/dat/mus/Nicolas Repac - Swing Swing (2004)/12 -  La Nuit M\xc3\xa8ne Une Existence Obscure.mp3'
p1438
aS'/media/dat/mus/Carptree/Carptree - 2001 - Carptree [320]/06 - It Doesn\xc2\xb4t Know It.mp3'
p1439
aS'/media/dat/mus/Coeur de pirate/Coeur de pirate - Coeur de pirate (2008) - 10 - Pour un infid\xc3\xa8le.mp3'
p1440
aS"/media/dat/mus/Coeur de pirate/Coeur de pirate - Coeur de pirate (2008) - 12 - C'\xc3\xa9tait salement romantique.mp3"
p1441
aS'/media/dat/mus/Black Sabbath/Forbidden/04 - Shaking Off The Chains.flac'
p1442
aS'/media/dat/mus/Black Sabbath/Forbidden/09 - Forbidden.flac'
p1443
aS'/media/dat/mus/Black Sabbath/Forbidden/07 - Sick & Tired.flac'
p1444
aS'/media/dat/mus/Black Sabbath/Forbidden/06 - Guilty As Hell.flac'
p1445
aS'/media/dat/mus/Black Sabbath/Forbidden/01 - The Illusion Of Power.flac'
p1446
aS"/media/dat/mus/Black Sabbath/Forbidden/03 - Can't Get Close Enough.flac"
p1447
aS"/media/dat/mus/Black Sabbath/Forbidden/05 - I Won't Cry For You.flac"
p1448
aS'/media/dat/mus/Jean Leloup/1985- 2005/La vall\xc3\xa9e des r\xc3\xa9putations.flac'
p1449
aS'/media/dat/mus/Jean Leloup/1985- 2005/Le d\xc3\xb4me.flac'
p1450
aS'/media/dat/mus/Jean Leloup/1985- 2005/Le monde est \xc3\xa0 pleurer.flac'
p1451
aS'/media/dat/mus/Jean Leloup/1985- 2005/Johnny Go [Video Remix].flac'
p1452
aS'/media/dat/mus/Jean Leloup/1985- 2005/Forest.flac'
p1453
aS'/media/dat/mus/Jean Leloup/1985- 2005/Balade \xc3\xa0 Toronto.flac'
p1454
aS'/media/dat/mus/Jean Leloup/1985- 2005/Je joue de la guitare [Version Radio].flac'
p1455
aS'/media/dat/mus/Jean Leloup/1985- 2005/Plein gaz !.flac'
p1456
aS'/media/dat/mus/Jean Leloup/1985- 2005/Paradis perdu.flac'
p1457
aS'/media/dat/mus/Jean Leloup/1985- 2005/Alger.flac'
p1458
aS'/media/dat/mus/Jean Leloup/1985- 2005/Cookie.flac'
p1459
aS'/media/dat/mus/Jean Leloup/1985- 2005/Les fourmis [Version Radio].flac'
p1460
aS'/media/dat/mus/Jean Leloup/1985- 2005/La fin du monde est \xc3\xa0 7 heures.flac'
p1461
aS'/media/dat/mus/Jean Leloup/1985- 2005/Edgar.flac'
p1462
aS'/media/dat/mus/Jean Leloup/1985- 2005/D\xc3\xa9cadence.flac'
p1463
aS'/media/dat/mus/Jean Leloup/1985- 2005/La vie est laide [Version Radio].flac'
p1464
aS"/media/dat/mus/Jean Leloup/1985- 2005/L'amour est sans piti\xc3\xa9.flac"
p1465
aS'/media/dat/mus/Jean Leloup/1985- 2005/Printemps \xc3\xa9t\xc3\xa9.flac'
p1466
asS'processRunningTimeInMS'
p1467
F509.74714803695679
sS'totalFileCount'
p1468
I17340
sb.